(dp0
S'remotes'
p1
(dp2
I01
(dp3
S'yes/URC-39765_B00'
p4
NssS'hp'
p5
(dp6
S'hp/hp-465539'
p7
NsS'hp/RC1762307-01'
p8
NsS'hp/DV4-1125NR'
p9
NsS'hp/RC1762302-00'
p10
NsS'hp/Pavilion_m7682.fr'
p11
NsS'hp/RC180491206'
p12
NsS'hp/HSTNN-PRO7'
p13
NsS'hp/DV6331'
p14
NsS'hp/RC1762308-01B'
p15
NssS'abit'
p16
(dp17
S'abit/AU10'
p18
NssS'fisher_price'
p19
(dp20
S'fisher_price/C0108'
p21
NssS'ge'
p22
(dp23
S'ge/UNIVERSAL'
p24
NsS'ge/VKFS0938'
p25
NsS'ge/TV-25CT511'
p26
NsS'ge/VCR'
p27
NssS'ciat'
p28
(dp29
S'ciat/6711A20026G'
p30
NssS'century_concept'
p31
(dp32
S'century_concept/PS2-0001'
p33
NssS'eagle_aspen'
p34
(dp35
S'eagle_aspen/ROTR10'
p36
NssS'captain'
p37
(dp38
S'captain/7100usb'
p39
NssS'lenco'
p40
(dp41
S'lenco/PPS_2024_CD'
p42
NssS'sonicview'
p43
(dp44
S'sonicview/SV-1000'
p45
NsS'sonicview/SV-360'
p46
NssS'chinon'
p47
(dp48
S'chinon/CDS-430'
p49
NssS'jvc'
p50
(dp51
S'jvc/PQ10779'
p52
NsS'jvc/SXV037J'
p53
NsS'jvc/Dish_Network'
p54
NsS'jvc/PQ11534.irman'
p55
NsS'jvc/RM-RXQ1002'
p56
NsS'jvc/RM-C601.irman'
p57
NsS'jvc/PQ21953A'
p58
NsS'jvc/PQ21953F'
p59
NsS'jvc/LP20106-002'
p60
NsS'jvc/LP20337-004.irman'
p61
S'jvc/LP20337-004.jpg'
p62
sS'jvc/RM-SEMX-44U.irman'
p63
NsS'jvc/RM-SFSG5J'
p64
NsS'jvc/HR-S7600U'
p65
NsS'jvc/RM-C410'
p66
NsS'jvc/LP20878-009'
p67
NsS'jvc/RM-SED60TU'
p68
NsS'jvc/HR-J52MS'
p69
NsS'jvc/RM-C388.irman'
p70
NsS'jvc/RM-RXUA4'
p71
NsS'jvc/RM-RK50'
p72
NsS'jvc/LP20878-014-VCR'
p73
NsS'jvc/RM-SEEXA1R'
p74
NsS'jvc/LP20465-005'
p75
NsS'jvc/RM-SUXP5R'
p76
NsS'jvc/RM-SRX5022U'
p77
NsS'jvc/RM-SMXJ100E'
p78
NsS'jvc/RM-SEMXS3U'
p79
NsS'jvc/RM-SUXS57R'
p80
NsS'jvc/RM-SVSDT6R'
p81
NsS'jvc/RM-C678'
p82
NsS'jvc/RM-RP610'
p83
NsS'jvc/CA_E33'
p84
NsS'jvc/RM-SXV008J'
p85
NsS'jvc/RM-C530'
p86
NsS'jvc/RM-SE31'
p87
NsS'jvc/RM-C670'
p88
NsS'jvc/RM-RX130'
p89
NsS'jvc/JX-S700'
p90
NsS'jvc/RM-SA5U'
p91
NsS'jvc/LP20878-016'
p92
NsS'jvc/RM-SX263U'
p93
NsS'jvc/LP21036-039'
p94
NsS'jvc/RM-RXUV5R'
p95
NsS'jvc/RM-C360'
p96
NsS'jvc/RM-RXUV9RMD'
p97
NsS'jvc/100331-AA'
p98
NsS'jvc/RM-SXVS40A'
p99
NsS'jvc/RM-V1E'
p100
NsS'jvc/RM-C1100'
p101
NsS'jvc/PQ10344CG'
p102
NsS'jvc/PQ11534'
p103
NsS'jvc/RM-SEMXS6U'
p104
NsS'jvc/RM-SXV08J'
p105
NsS'jvc/RM-SR518U'
p106
NsS'jvc/RM-SMXJ950R'
p107
NsS'jvc/LP20303-009'
p108
NsS'jvc/RM-SES700RU'
p109
NsS'jvc/RM-RXQC7BKE'
p110
NsS'jvc/RM-S9'
p111
NsS'jvc/RM-RXU1'
p112
NsS'jvc/PQ10543'
p113
NsS'jvc/RM-RK31'
p114
NsS'jvc/RM-SES200U'
p115
NsS'jvc/LP20337-004'
p116
NsS'jvc/RM-SES60U'
p117
NsS'jvc/RM-C860'
p118
NsS'jvc/RM-SFSSD7R'
p119
NsS'jvc/LP20978-008'
p120
NsS'jvc/RM-RX250'
p121
NsS'jvc/RM-SR509U'
p122
NsS'jvc/RM-C1251G'
p123
NsS'jvc/JVC_4700'
p124
NsS'jvc/RM-SED3SU'
p125
NsS'jvc/RM-RD1100'
p126
NsS'jvc/RM-V717U'
p127
NsS'jvc/RM-C462'
p128
NsS'jvc/RM-V730U'
p129
NsS'jvc/RM-C475W'
p130
NsS'jvc/RM-C422'
p131
NsS'jvc/RM-SES3OU'
p132
NsS'jvc/RM-SHXD77J'
p133
NsS'jvc/LP20337-013'
p134
NsS'jvc/RM-RXQW35'
p135
NsS'jvc/RM-SX334U'
p136
NsS'jvc/6711R1P037A'
p137
NsS'jvc/RM-RX050'
p138
NsS'jvc/RM-RK60'
p139
NsS'jvc/RM-V718U'
p140
NsS'jvc/RM-SX440'
p141
NsS'jvc/RM-RXUT200R'
p142
NsS'jvc/RM-C241'
p143
NsS'jvc/RM-SEMD70RU'
p144
NsS'jvc/RM-C795'
p145
NssS'dantax'
p146
(dp147
S'dantax/RC_DVD910'
p148
NssS'visionetics'
p149
(dp150
S'visionetics/Cable_Box'
p151
NssS'fenner'
p152
(dp153
S'fenner/SAT'
p154
NssS'advanced_acoustic'
p155
(dp156
S'advanced_acoustic/MAP-305II_DAII'
p157
NssS'olympus'
p158
(dp159
S'olympus/RM-1'
p160
NsS'olympus/RM-2'
p161
NssS'atlanta_dth'
p162
(dp163
S'atlanta_dth/8009_DSR'
p164
NssS'topseed'
p165
(dp166
S'topseed/RM-VR1'
p167
NssS'sony'
p168
(dp169
S'sony/RMT-809'
p170
NsS'sony/RM-S343'
p171
NsS'sony/RM-DM9'
p172
NsS'sony/RMT-C205AD'
p173
NsS'sony/RM-DM7'
p174
NsS'sony/RM-S29E'
p175
NsS'sony/RM-SD25-3'
p176
NsS'sony/RM-J701'
p177
NsS'sony/RM-S6'
p178
NsS'sony/RM-S103'
p179
NsS'sony/RM-D5'
p180
NsS'sony/RMT-C767'
p181
NsS'sony/RM-D295'
p182
NsS'sony/RM-S33'
p183
NsS'sony/RM-D49M'
p184
NsS'sony/RM-PP411'
p185
NsS'sony/RMT-C565'
p186
NsS'sony/RMT-C350'
p187
NsS'sony/RMT-V108.irman'
p188
NsS'sony/RM-U306A'
p189
NsS'sony/RM-D490'
p190
NsS'sony/RMT-D114A'
p191
NsS'sony/RM-D29M'
p192
NsS'sony/RM-U25'
p193
NsS'sony/RM-893'
p194
NsS'sony/RMT-D173A'
p195
NsS'sony/RM-D791'
p196
NsS'sony/RMT-V406B'
p197
NsS'sony/RM-783'
p198
NsS'sony/RM-SV236'
p199
NsS'sony/RM-D797'
p200
NsS'sony/RM-D315'
p201
NsS'sony/V500_VPL-W400'
p202
NsS'sony/RM-827T'
p203
NsS'sony/RM-U305'
p204
NsS'sony/RM-U302'
p205
NsS'sony/RM-U303'
p206
NsS'sony/RMT-V166-TV'
p207
NsS'sony/RMT-DSC2'
p208
NsS'sony/RMT-D142P'
p209
NsS'sony/RM-S44'
p210
NsS'sony/RM-V11'
p211
NsS'sony/RMT-V189'
p212
NsS'sony/RM-687C'
p213
NsS'sony/RMT-C301'
p214
NsS'sony/RM-DX740'
p215
NsS'sony/RM-D450'
p216
NsS'sony/RM-D420'
p217
NsS'sony/RM-SC1'
p218
NsS'sony/RM-V111T'
p219
NsS'sony/RM-D270'
p220
NsS'sony/RM-Y103'
p221
NsS'sony/RM-V210'
p222
NsS'sony/RMT-V117'
p223
NsS'sony/RM-SR231'
p224
NsS'sony/SWK-8660'
p225
NsS'sony/RMT-CF1A'
p226
NsS'sony/RM-S100'
p227
NsS'sony/RMT-V154F'
p228
NsS'sony/RM-PJVW10'
p229
NsS'sony/RM-PJP1'
p230
NsS'sony/RMT-D116P'
p231
NsS'sony/RM-D27M'
p232
NsS'sony/RMT-B101A'
p233
NsS'sony/RMT-D153A'
p234
NsS'sony/RM-D17M'
p235
NsS'sony/RM-SE7AV'
p236
NsS'sony/RM-947'
p237
NsS'sony/RMT-V676B'
p238
NsS'sony/RM-D720'
p239
NsS'sony/RMT-D129A'
p240
NsS'sony/SCPH-10150'
p241
NsS'sony/RM-DX300'
p242
NsS'sony/RM-D1000'
p243
NsS'sony/RMT-V124'
p244
NsS'sony/CMT-CP100'
p245
NsS'sony/RM-D250'
p246
NsS'sony/RM-Y168'
p247
NsS'sony/RM-D520'
p248
NsS'sony/RM-606'
p249
NsS'sony/RM-SS800'
p250
NsS'sony/RMT-V270'
p251
NsS'sony/RM-AAU014'
p252
NsS'sony/RM-D597'
p253
NsS'sony/RM-S315'
p254
NsS'sony/RM-D820'
p255
NsS'sony/RM-S311'
p256
NsS'sony/RM-SV215D'
p257
NsS'sony/RMT-M22'
p258
NsS'sony/RM-D670A'
p259
NsS'sony/RM-870'
p260
NsS'sony/RM-SR210.irman'
p261
NsS'sony/RMT-708'
p262
NsS'sony/RM-Y116.irman'
p263
NsS'sony/RM-ED009'
p264
NsS'sony/RMT-D126E'
p265
NsS'sony/RM-D15M'
p266
NsS'sony/RMT-D126A'
p267
NsS'sony/RM-S150'
p268
NsS'sony/RM-Y118'
p269
NsS'sony/RMT-V402A'
p270
NsS'sony/RMT-V153B'
p271
NsS'sony/RM-694'
p272
NsS'sony/RM-S61'
p273
NsS'sony/RM-921'
p274
NsS'sony/SCPH-10150.irman'
p275
NsS'sony/RMT-DRS11'
p276
NsS'sony/RM-SR100'
p277
NsS'sony/RM-S375X'
p278
NsS'sony/RMT-B104P'
p279
NsS'sony/RM-D335'
p280
NsS'sony/RM-S737'
p281
NsS'sony/RM-D57A'
p282
NsS'sony/RM-ED006'
p283
NsS'sony/RMT-V256'
p284
NsS'sony/RM-U33AV'
p285
NsS'sony/RM-V310'
p286
NsS'sony/RMT-V266'
p287
NsS'sony/RM-VZ950T'
p288
NsS'sony/RMT-835'
p289
NsS'sony/RM-D921'
p290
NsS'sony/RM-D420.irman'
p291
NsS'sony/RM-V211T'
p292
NsS'sony/KV_32LS35E'
p293
NsS'sony/RM-470'
p294
NsS'sony/RM-U204'
p295
NsS'sony/RM-D1M'
p296
NsS'sony/RM-673'
p297
NsS'sony/RMT-V145A'
p298
NsS'sony/RMT-CS200A'
p299
NsS'sony/RMT-CS33AD'
p300
NsS'sony/RM-D2100'
p301
NsS'sony/CONRAD_CD000'
p302
NsS'sony/DVP-S505'
p303
NsS'sony/RMT-M12A'
p304
NsS'sony/RM-L310'
p305
NsS'sony/RM-SG20'
p306
NsS'sony/RM-D7M'
p307
NsS'sony/RM-887'
p308
NsS'sony/RMT-C202'
p309
NsS'sony/RM-Y800'
p310
NsS'sony/RM-883'
p311
NsS'sony/RMT-V159'
p312
NsS'sony/RM-U541'
p313
NsS'sony/RM-D55A'
p314
NsS'sony/RMT-D115P'
p315
NsS'sony/RM-sep303'
p316
NsS'sony/RM-DX50'
p317
NsS'sony/RM-SSP55'
p318
NsS'sony/RM-YD010'
p319
NsS'sony/RM-D7M.2'
p320
NsS'sony/RM-P362'
p321
NsS'sony/839'
p322
NsS'sony/RM-873'
p323
NsS'sony/RM-D190'
p324
NsS'sony/RM-D10P'
p325
NsS'sony/RMT-V257B'
p326
NsS'sony/RM-U302.irman'
p327
NsS'sony/RMT-814'
p328
NsS'sony/RMT-D143E'
p329
NsS'sony/RM-S55'
p330
NsS'sony/RMT-812'
p331
NsS'sony/RMT-V231A'
p332
NsS'sony/RM-Y180'
p333
NsS'sony/RM-Y181'
p334
NsS'sony/RMT-CS33R.irman'
p335
NsS'sony/RM-D391'
p336
NsS'sony/RMT-506'
p337
NsS'sony/VaioRemote'
p338
NsS'sony/RMT-V202'
p339
NsS'sony/RM-S112'
p340
NsS'sony/STR-DE635'
p341
NsS'sony/RM-YD003'
p342
NsS'sony/RM-U265'
p343
NsS'sony/RM-U264'
p344
NsS'sony/STR-DE205'
p345
NsS'sony/RMT_CYN7AD'
p346
NsS'sony/RM-V202'
p347
NsS'sony/RM-D991'
p348
NsS'sony/RM-S22'
p349
NsS'sony/RM-AV3000'
p350
NsS'sony/RMT-V288'
p351
NsS'sony/RM-S29'
p352
NsS'sony/RMT-V155C'
p353
NsS'sony/RMT-V141K'
p354
NsS'sony/AMPIR'
p355
NsS'sony/RM-PP402'
p356
NsS'sony/RM-S325'
p357
NsS'sony/RM-D90'
p358
NsS'sony/RMT-V256A.irman'
p359
NsS'sony/RM-SR8'
p360
NsS'sony/RMT-V501A'
p361
NsS'sony/RM-S609'
p362
NsS'sony/RM-X95'
p363
NsS'sony/RM-D302'
p364
NsS'sony/V164G-TV'
p365
NsS'sony/RMT-713'
p366
NsS'sony/RM-SRB5'
p367
NsS'sony/RM-816'
p368
NsS'sony/RMT-V259K'
p369
NsS'sony/RMT-V115A'
p370
NsS'sony/RM-V10T'
p371
NsS'sony/RMT-V207C'
p372
NsS'sony/RMT-D141P'
p373
NsS'sony/RMT-831'
p374
NsS'sony/RM-X30'
p375
NsS'sony/RMT-D155A'
p376
NsS'sony/RMT-D100A'
p377
NsS'sony/RM-SE1AV'
p378
NsS'sony/RM-D55'
p379
NsS'sony/RM-ED035'
p380
NsS'sony/TV'
p381
NsS'sony/RMT-V107'
p382
NsS'sony/RMT-V181D'
p383
NsS'sony/RMT-V102'
p384
NsS'sony/RM-S705'
p385
NsS'sony/RM-AV2100T'
p386
NsS'sony/RM-SD80.irman'
p387
NsS'sony/RM-D350A'
p388
NsS'sony/SCPH-10420'
p389
NsS'sony/RM-DX220'
p390
NsS'sony/RMT-D156P'
p391
NsS'sony/RMT-V767'
p392
NsS'sony/RM-D325'
p393
NsS'sony/RM-X42'
p394
NsS'sony/RM-X40'
p395
NsS'sony/RM-X47'
p396
NsS'sony/RM-D320'
p397
NsS'sony/RMT-V186D'
p398
NsS'sony/RM-836'
p399
NsS'sony/RM-833'
p400
NsS'sony/RM-830'
p401
NsS'sony/RM-831'
p402
NsS'sony/RM-935'
p403
NsS'sony/RM-934'
p404
NsS'sony/RM-932'
p405
NsS'sony/RM-839'
p406
NsS'sony/RMT-D157P'
p407
NsS'sony/RM-SD70'
p408
NsS'sony/RMT-V406'
p409
NsS'sony/RM-D706'
p410
NsS'sony/RM-YD017.tira'
p411
NsS'sony/RM-ED019'
p412
NsS'sony/RM-ED011'
p413
NsS'sony/RM-689'
p414
NsS'sony/RM-D690'
p415
NsS'sony/RM-Y173'
p416
NsS'sony/RMT-V161'
p417
NsS'sony/RMT-V202A'
p418
NsS'sony/RMT-V173C'
p419
NsS'sony/RMT-V223'
p420
NsS'sony/RMT-V245A'
p421
NsS'sony/RMT-V501E'
p422
NsS'sony/RM-861'
p423
NsS'sony/RM-860'
p424
NsS'sony/RM-862'
p425
NsS'sony/RMT-CZW770AD'
p426
NsS'sony/RM-DX200'
p427
NsS'sony/RM-D170'
p428
NsS'sony/RM-PP860'
p429
NsS'sony/SCPH-10130'
p430
NsS'sony/RM-S530'
p431
NsS'sony/RMT-CE95AD'
p432
NsS'sony/RM-V402'
p433
NsS'sony/RM-S160'
p434
NsS'sony/RM-Y139.irman'
p435
NsS'sony/RM-SG5'
p436
NsS'sony/RM-SG7'
p437
NsS'sony/RM-U305C.irman'
p438
NsS'sony/RM-SED2'
p439
NsS'sony/RMT-C380'
p440
NsS'sony/RMT-504'
p441
NsS'sony/RMT-502'
p442
NsS'sony/RM-S11'
p443
NsS'sony/RM-SD50'
p444
NsS'sony/RM-Y155B'
p445
NsS'sony/RM-W100'
p446
NsS'sony/RM-W101'
p447
NsS'sony/RMT-CS47AD'
p448
NsS'sony/RMT-136'
p449
NsS'sony/RMT-V181G'
p450
NsS'sony/RM-Y812'
p451
NsS'sony/DAT'
p452
NsS'sony/RM-S702'
p453
NsS'sony/RM-Y135'
p454
NsS'sony/RMT-V181A'
p455
NsS'sony/RMT-V181N'
p456
NsS'sony/RMT-C305AD'
p457
NsS'sony/TUNER'
p458
NsS'sony/RM-SM100EW'
p459
NsS'sony/RMT-V166-VTR'
p460
NsS'sony/RMT-V164A'
p461
NsS'sony/RM-V301'
p462
NsS'sony/RM-YD024'
p463
NsS'sony/RM-V302'
p464
NsS'sony/RMT-V159J'
p465
NsS'sony/RM-AV2000.irman'
p466
NssS'sitronics'
p467
(dp468
S'sitronics/RC-D010E'
p469
NssS'alpine'
p470
(dp471
S'alpine/RUE-4187'
p472
NsS'alpine/RUE-4185'
p473
NssS'gran_prix'
p474
(dp475
S'gran_prix/TV'
p476
NssS'trutech'
p477
(dp478
S'trutech/TV'
p479
NssS'panasat'
p480
(dp481
S'panasat/IRD_DSD_1110'
p482
NssS'slim_devices'
p483
(dp484
S'slim_devices/Squeezebox3'
p485
NssS'galaxis'
p486
(dp487
S'galaxis/UR-250D'
p488
NsS'galaxis/RC1'
p489
NsS'galaxis/RCMM'
p490
NsS'galaxis/RC5'
p491
NssS'upc'
p492
(dp493
S'upc/SAT'
p494
NssS'vistron'
p495
(dp496
S'vistron/LTM-3271E'
p497
NsS'vistron/DVD-5211'
p498
NssS'roku'
p499
(dp500
S'roku/Soundbridge'
p501
NsS'roku/Netflix_Player'
p502
NsS'roku/N1000-04'
p503
NssS'northq'
p504
(dp505
S'northq/6400'
p506
NssS'anitech'
p507
(dp508
S'anitech/TV_M3740'
p509
NsS'anitech/VCR'
p510
NssS'teac'
p511
(dp512
S'teac/RC-547'
p513
NsS'teac/RC-614'
p514
NsS'teac/PD-D900'
p515
NsS'teac/UR-417'
p516
NsS'teac/RC-548'
p517
NsS'teac/RC-558'
p518
NsS'teac/DMP'
p519
NsS'teac/RC-1091'
p520
NsS'teac/RC-909'
p521
NssS'zoltrix'
p522
(dp523
S'zoltrix/lircd.conf.zoltrix'
p524
NssS'uei'
p525
(dp526
S'uei/DVR-1055'
p527
NssS'cph03x'
p528
(dp529
S'cph03x/lircd.conf.cph03x'
p530
NssS'life-view'
p531
(dp532
S'life-view/lircd.conf.Flyvideo_3000'
p533
NsS'life-view/lircd.conf.flyvideo'
p534
NssS'uec'
p535
(dp536
S'uec/DVB_SAT'
p537
NssS'yakumo'
p538
(dp539
S'yakumo/DVD_Master_DX4'
p540
NssS'hitachi'
p541
(dp542
S'hitachi/VT-RM633E'
p543
NsS'hitachi/VM222'
p544
NsS'hitachi/CLE-947'
p545
NsS'hitachi/VT-RM621A'
p546
NsS'hitachi/VT-M410E'
p547
NsS'hitachi/VT-RM783E'
p548
NsS'hitachi/FX-7'
p549
NsS'hitachi/RB-77'
p550
NsS'hitachi/RM-466E'
p551
NsS'hitachi/CLE-941'
p552
NsS'hitachi/CP-X345'
p553
NsS'hitachi/CLU4341UG2'
p554
NsS'hitachi/898A'
p555
NsS'hitachi/VM-rmE55A'
p556
NsS'hitachi/VT-RM_728E'
p557
NsS'hitachi/RM-613a'
p558
NsS'hitachi/TV_VCR'
p559
NsS'hitachi/DV-RM335E'
p560
NsS'hitachi/VT-RM401E.irman'
p561
NssS'media-tech'
p562
(dp563
S'media-tech/RUMBA_5.1_MT343'
p564
NssS'manta'
p565
(dp566
S'manta/DVD-002'
p567
NsS'manta/DVD-007'
p568
NssS'panda'
p569
(dp570
S'panda/DVD-6838'
p571
NssS'vitek'
p572
(dp573
S'vitek/Vitek'
p574
NssS'2wire'
p575
(dp576
S'2wire/2wire'
p577
NssS'sun'
p578
(dp579
S'sun/RMC-D10'
p580
NssS'amytel'
p581
(dp582
S'amytel/ACI-200'
p583
NssS'nec'
p584
(dp585
S'nec/RC-6051'
p586
NsS'nec/RD-337E'
p587
NsS'nec/RC-1070E'
p588
NsS'nec/RD-343E'
p589
NsS'nec/RC-1067E'
p590
NsS'nec/RD-1077E'
p591
NsS'nec/RB-34P'
p592
NsS'nec/RB-DV22'
p593
NsS'nec/RC-1080E'
p594
NsS'nec/UR-3020'
p595
NsS'nec/RB-D1G'
p596
NsS'nec/RB-D3A'
p597
NsS'nec/RU-1220S'
p598
NsS'nec/TRB-31'
p599
NsS'nec/TRB-103'
p600
NsS'nec/RC-1083E'
p601
NsS'nec/RD-335E'
p602
NsS'nec/RD-1083E'
p603
NsS'nec/RC-1077E'
p604
NsS'nec/RC-334E'
p605
NsS'nec/TRB-60'
p606
NsS'nec/RD-409E'
p607
NsS'nec/TRB-968A'
p608
NsS'nec/RC-6321'
p609
NsS'nec/RC-1065E'
p610
NsS'nec/RD-427E'
p611
NsS'nec/RD-348E'
p612
NsS'nec/RB-73A'
p613
NsS'nec/RD-1078E'
p614
NsS'nec/RC-6010'
p615
NssS'satelco'
p616
(dp617
S'satelco/EasyWatch'
p618
NssS'abs'
p619
(dp620
S'abs/8776'
p621
NssS'kanam_accent'
p622
(dp623
S'kanam_accent/lircd.conf.IR-100'
p624
NsS'kanam_accent/lircd.conf.kanam_accent'
p625
NssS'3m'
p626
(dp627
S'3m/MP8640'
p628
NssS'optex'
p629
(dp630
S'optex/ORT_8790'
p631
NssS'admiral'
p632
(dp633
S'admiral/G0014AJ'
p634
NssS'kosmos'
p635
(dp636
S'kosmos/STR1050'
p637
NssS'euroconsumers'
p638
(dp639
S'euroconsumers/LG-5988'
p640
NssS'yamakawa'
p641
(dp642
S'yamakawa/DVD-285VGA'
p643
NssS'aten'
p644
(dp645
S'aten/VS-431'
p646
NssS'strong'
p647
(dp648
S'strong/ZapBox'
p649
NssS'system76'
p650
(dp651
S'system76/Bonobo'
p652
NssS'eltasat'
p653
(dp654
S'eltasat/SAT170'
p655
NssS'venturer'
p656
(dp657
S'venturer/STB7766G1'
p658
NsS'venturer/CD1832'
p659
NssS'aki'
p660
(dp661
S'aki/DVD-838W'
p662
NssS'mitochiba'
p663
(dp664
S'mitochiba/JX-9902'
p665
NsS'mitochiba/KF220100'
p666
NssS'lasonic'
p667
(dp668
S'lasonic/R-2000'
p669
NssS'rotel'
p670
(dp671
S'rotel/RR-925'
p672
NssS'yamada'
p673
(dp674
S'yamada/DVX-6xxx'
p675
NsS'yamada/PRM-400'
p676
NssS'apple'
p677
(dp678
S'apple/A1156'
p679
NsS'apple/lircd.conf.macmini'
p680
NsS'apple/CD'
p681
NsS'apple/APPLE.irman'
p682
NsS'apple/Mac'
p683
NsS'apple/A1294'
p684
NssS'cttc'
p685
(dp686
S'cttc/CLA_Tronic'
p687
NssS'sgi'
p688
(dp689
S'sgi/4-042-281'
p690
NssS'revoy'
p691
(dp692
S'revoy/Revoy_2200'
p693
NssS'awlibusb'
p694
(dp695
S'awlibusb/lircd.conf.awlibusb'
p696
NssS'philco'
p697
(dp698
S'philco/PCR-111'
p699
NssS'orava'
p700
(dp701
S'orava/ovara/RC-5500'
p702
NsS'orava/RC_5219'
p703
NssS'illusion'
p704
(dp705
S'illusion/M3'
p706
NssS'fte_maximal'
p707
(dp708
S'fte_maximal/ESR1500'
p709
NssS'konig'
p710
(dp711
S'konig/IR_9490'
p712
NsS'konig/IR_9836'
p713
NssS'comcast'
p714
(dp715
S'comcast/RNG-150'
p716
NsS'comcast/Custom-3-Device'
p717
NsS'comcast/3067BC2-R'
p718
NssS'msi'
p719
(dp720
S'msi/Media_Center'
p721
NsS'msi/Mega_PC'
p722
NsS'msi/MegaPC_180'
p723
NsS'msi/TV@nywhere'
p724
NssS'minolta'
p725
(dp726
S'minolta/RC3'
p727
NssS'adstech'
p728
(dp729
S'adstech/lircd.conf.usbx-707'
p730
NssS'aopen'
p731
(dp732
S'aopen/RC-R470'
p733
NssS'miro'
p734
(dp735
S'miro/MIRO_PCTV_pro'
p736
NssS'viewsat'
p737
(dp738
S'viewsat/SAT'
p739
NsS'viewsat/VS2000_Extreme'
p740
NssS'nebula_electronics'
p741
(dp742
S'nebula_electronics/DigiTV'
p743
NssS'macro_image_technology'
p744
(dp745
S'macro_image_technology/MyHD'
p746
NssS'atlas'
p747
(dp748
S'atlas/ABS-1Q76'
p749
NssS'difrnce'
p750
(dp751
S'difrnce/DVD5010S'
p752
NssS'goldstar'
p753
(dp754
S'goldstar/TV'
p755
NsS'goldstar/VCR'
p756
NsS'goldstar/RN800AW'
p757
NsS'goldstar/TV_VCR'
p758
NsS'goldstar/6710S-6000A'
p759
NsS'goldstar/QUISY_500'
p760
NsS'goldstar/VCR2'
p761
NsS'goldstar/243-592c'
p762
NsS'goldstar/GSE-Q204P'
p763
NsS'goldstar/105-210A'
p764
NssS'mitsubishi'
p765
(dp766
S'mitsubishi/RM_M25-43306'
p767
NsS'mitsubishi/RM_M25-43303'
p768
NsS'mitsubishi/HS-349'
p769
NsS'mitsubishi/CD-2015C'
p770
NsS'mitsubishi/CS-2047R'
p771
NsS'mitsubishi/RM_75501'
p772
NsS'mitsubishi/HS640V'
p773
NsS'mitsubishi/CT21AM2(A)'
p774
NsS'mitsubishi/RM561V'
p775
NsS'mitsubishi/DIVA29'
p776
NsS'mitsubishi/HD1000'
p777
NssS'ibm'
p778
(dp779
S'ibm/HD23A'
p780
NssS'multi_canal'
p781
(dp782
S'multi_canal/DCC2000'
p783
NssS'freedomland'
p784
(dp785
S'freedomland/SWP-2438WJ1F'
p786
NssS'eclipse'
p787
(dp788
S'eclipse/CD101'
p789
NssS'dynaudio'
p790
(dp791
S'dynaudio/Sub_500'
p792
NssS'cat'
p793
(dp794
S'cat/KF-9816'
p795
NsS'cat/DVD-1122'
p796
NsS'cat/CS-907'
p797
NssS'emerson'
p798
(dp799
S'emerson/TV'
p800
NsS'emerson/NB050'
p801
NsS'emerson/076m056100'
p802
NsS'emerson/CD'
p803
NssS'pc_expert_tech'
p804
(dp805
S'pc_expert_tech/MKB975'
p806
NssS'saba'
p807
(dp808
S'saba/TC545'
p809
NsS'saba/RC6X03FE'
p810
NsS'saba/m100'
p811
NsS'saba/TC460'
p812
NsS'saba/TC3003'
p813
NsS'saba/TC521'
p814
NssS'l+s'
p815
(dp816
S'l+s/LS_20101'
p817
NsS'l+s/LS_30775'
p818
NssS'benq'
p819
(dp820
S'benq/DV3080'
p821
NsS'benq/MP620'
p822
NssS'time_warner_cable'
p823
(dp824
S'time_warner_cable/RT-59C'
p825
NsS'time_warner_cable/UR4-P360'
p826
NssS'dual'
p827
(dp828
S'dual/RC1150'
p829
NsS'dual/RC_4890'
p830
NsS'dual/RC500'
p831
NssS'gamefactory'
p832
(dp833
S'gamefactory/PS2DVD'
p834
NssS'alba'
p835
(dp836
S'alba/DVD108'
p837
NssS'hip_interactive'
p838
(dp839
S'hip_interactive/GE1002'
p840
NssS'ione'
p841
(dp842
S'ione/HTPC'
p843
NssS'elenberg'
p844
(dp845
S'elenberg/RC-404E'
p846
NssS'total_control'
p847
(dp848
S'total_control/11-1208R00'
p849
NssS'orion'
p850
(dp851
S'orion/RC-BM'
p852
NsS'orion/RC-CB'
p853
NsS'orion/RC-57'
p854
NsS'orion/TV-713'
p855
NsS'orion/RC-08'
p856
NssS'chronos'
p857
(dp858
S'chronos/lircd.conf.chronos'
p859
NssS'sharp'
p860
(dp861
S'sharp/G1023BMSA'
p862
NsS'sharp/G0797CESA'
p863
NsS'sharp/G1051BMSA'
p864
NsS'sharp/G1014BMSA'
p865
NsS'sharp/G0938CESA'
p866
NsS'sharp/G0412GE'
p867
NsS'sharp/G1059SA'
p868
NsS'sharp/G0247AJ'
p869
NsS'sharp/RRMCGA030WJSA'
p870
NsS'sharp/GA447SA'
p871
NsS'sharp/G0206AJ'
p872
NsS'sharp/G1044BMSA'
p873
NsS'sharp/GA006SA'
p874
NsS'sharp/VC-1594B'
p875
NsS'sharp/G1208AJ'
p876
NsS'sharp/LC-20V1RU'
p877
NsS'sharp/GA035SB'
p878
NsS'sharp/RRMCG0041SJSA'
p879
NsS'sharp/G0715UM'
p880
NsS'sharp/RRMCG0235AJSB'
p881
NsS'sharp/GJ210'
p882
NsS'sharp/G0927AJ'
p883
NsS'sharp/RRMCG0012SJSB'
p884
NsS'sharp/RRMCG0199GESA'
p885
NsS'sharp/G1046BMSA'
p886
NsS'sharp/G1324SA'
p887
NsS'sharp/G096GE'
p888
NsS'sharp/G0742GE'
p889
NsS'sharp/RRMCG0101AJSA'
p890
NsS'sharp/G0009AJ'
p891
NsS'sharp/G0379GE'
p892
NsS'sharp/G0641CESA'
p893
NsS'sharp/GA538WJSA'
p894
NsS'sharp/RRMCG0356AWSA'
p895
NsS'sharp/RRMCG0229AWSA'
p896
NsS'sharp/GA339WJSA'
p897
NsS'sharp/CV-2131CK1'
p898
NsS'sharp/RRMCG0186AFSA'
p899
NsS'sharp/R-CONT1616A'
p900
NsS'sharp/G1084PESA'
p901
NsS'sharp/1781'
p902
NsS'sharp/G0048TA'
p903
NsS'sharp/G1071SA'
p904
NsS'sharp/G0006AJ'
p905
NssS'animax'
p906
(dp907
S'animax/lircd.conf.animax'
p908
NssS'united'
p909
(dp910
S'united/DVD4057M'
p911
NssS'palmbutler'
p912
(dp913
S'palmbutler/RC1154101_00'
p914
NssS'revo'
p915
(dp916
S'revo/Blik'
p917
NssS'grundig'
p918
(dp919
S'grundig/TP_750C'
p920
NsS'grundig/TP_760'
p921
NsS'grundig/RC1CD'
p922
NsS'grundig/TP_820_SAT'
p923
NsS'grundig/TP_661_TOP'
p924
NsS'grundig/ASIS'
p925
NsS'grundig/System_Series'
p926
NsS'grundig/TP_800_HOTEL'
p927
NsS'grundig/TP_623'
p928
NsS'grundig/RC24-03'
p929
NsS'grundig/RP_100'
p930
NsS'grundig/TelePilot_100C'
p931
NsS'grundig/RP25'
p932
NsS'grundig/FineArts_AMP_V1'
p933
NsS'grundig/RC-TP3'
p934
NsS'grundig/TVP_763'
p935
NsS'grundig/CDM_700'
p936
NsS'grundig/RP_35'
p937
NsS'grundig/RP700'
p938
NsS'grundig/FineARTS'
p939
NsS'grundig/Personal_Remote_10'
p940
NsS'grundig/2500S'
p941
NsS'grundig/RC300'
p942
NsS'grundig/TP660'
p943
NsS'grundig/TP_715'
p944
NsS'grundig/TP_711'
p945
NsS'grundig/TelePilot_84D'
p946
NsS'grundig/TP_720'
p947
NsS'grundig/TP_160C'
p948
NsS'grundig/RP75_LCD'
p949
NsS'grundig/TP_750C-2'
p950
NsS'grundig/TP_715_SAT'
p951
NsS'grundig/M38-C'
p952
NsS'grundig/RC8400CD'
p953
NsS'grundig/TP_621'
p954
NsS'grundig/rc8300ac'
p955
NssS'hot'
p956
(dp957
S'hot/SET_TOP_BOX'
p958
NssS'one_for_all'
p959
(dp960
S'one_for_all/URC-7830'
p961
NsS'one_for_all/URC-7710'
p962
NsS'one_for_all/URC-5550'
p963
NsS'one_for_all/URC7040_Phillips_0081_VCR'
p964
NsS'one_for_all/URC-2510'
p965
NsS'one_for_all/URC-6131nwB00'
p966
NsS'one_for_all/URC-8200B00'
p967
NsS'one_for_all/URC-4220'
p968
NsS'one_for_all/URC-8060-Sat-0200'
p969
NsS'one_for_all/URC-5065'
p970
NsS'one_for_all/URC-7510-2'
p971
NsS'one_for_all/URC-6012w'
p972
NsS'one_for_all/URC-8204'
p973
NsS'one_for_all/URC-8040'
p974
NsS'one_for_all/URC-8203'
p975
NsS'one_for_all/URC-7730'
p976
NsS'one_for_all/URC-7560'
p977
NsS'one_for_all/URC-7562'
p978
NsS'one_for_all/URC-7550'
p979
NsS'one_for_all/ZAPPER'
p980
NsS'one_for_all/URC-7555'
p981
NsS'one_for_all/URC-7020'
p982
NsS'one_for_all/URC-3440'
p983
NsS'one_for_all/URC-3021B00'
p984
NsS'one_for_all/URC-2560'
p985
NsS'one_for_all/URC-8910'
p986
NsS'one_for_all/URC-7030'
p987
NsS'one_for_all/URC-7020_0083'
p988
NsS'one_for_all/URC-10820'
p989
NsS'one_for_all/URC-6012'
p990
NsS'one_for_all/URC_7720'
p991
NsS'one_for_all/URC-7562b'
p992
NsS'one_for_all/URC-7240'
p993
NsS'one_for_all/URC-7530'
p994
NsS'one_for_all/URC-7740'
p995
NsS'one_for_all/URC-7510'
p996
NsS'one_for_all/URC-7562a'
p997
NssS'lifesat'
p998
(dp999
S'lifesat/T_28'
p1000
NssS'tascam'
p1001
(dp1002
S'tascam/RC-401'
p1003
NsS'tascam/RC-31'
p1004
NssS'topfield'
p1005
(dp1006
S'topfield/TF4000Fi'
p1007
NsS'topfield/TF4000PVR'
p1008
NsS'topfield/PVR_5000'
p1009
NssS'mas'
p1010
(dp1011
S'mas/HSD-303'
p1012
NsS'mas/RC-0135'
p1013
NsS'mas/HSD-400'
p1014
NsS'mas/HSD400'
p1015
NssS'aoc'
p1016
(dp1017
S'aoc/M19W531'
p1018
NssS'vivanco'
p1019
(dp1020
S'vivanco/UR2'
p1021
NsS'vivanco/Viv.Control_3'
p1022
NsS'vivanco/UR_89'
p1023
NsS'vivanco/Viv.Control_8'
p1024
NssS'dell'
p1025
(dp1026
S'dell/MR425'
p1027
NssS'now_broadband_tv'
p1028
(dp1029
S'now_broadband_tv/SETTOP-BOX'
p1030
NsS'now_broadband_tv/DECODER'
p1031
NssS'sven'
p1032
(dp1033
S'sven/HT-475'
p1034
NsS'sven/IHOO_MT_5.1R'
p1035
NssS'centrum'
p1036
(dp1037
S'centrum/Gemini_340'
p1038
NsS'centrum/DVD'
p1039
NssS'xoro'
p1040
(dp1041
S'xoro/DVB_210_T'
p1042
NssS'lifetec'
p1043
(dp1044
S'lifetec/RC2000'
p1045
NsS'lifetec/Mini-Hifi-Station'
p1046
NsS'lifetec/LT9096'
p1047
NsS'lifetec/LT4033'
p1048
NssS'schneider'
p1049
(dp1050
S'schneider/FESTIVAL2000'
p1051
NsS'schneider/SVC568RC'
p1052
NsS'schneider/RC-193'
p1053
NsS'schneider/RC-116'
p1054
NsS'schneider/RC202'
p1055
NsS'schneider/RC-114'
p1056
NsS'schneider/FB2000'
p1057
NsS'schneider/Music-Center'
p1058
NsS'schneider/RC206'
p1059
NsS'schneider/RC902'
p1060
NsS'schneider/RC901'
p1061
NssS'gigabyte'
p1062
(dp1063
S'gigabyte/TV'
p1064
NssS'st'
p1065
(dp1066
S'st/HMP_7109'
p1067
NsS'st/DTTRC-4'
p1068
NssS'geniatech'
p1069
(dp1070
S'geniatech/Supera_Color'
p1071
NssS'nvidia'
p1072
(dp1073
S'nvidia/Personal_Cinema'
p1074
NssS'hello_kitty'
p1075
(dp1076
S'hello_kitty/KT2337'
p1077
NssS'e-tech'
p1078
(dp1079
S'e-tech/TV_CARD'
p1080
NssS'starhub'
p1081
(dp1082
S'starhub/ABQ-1H57-SCV'
p1083
NssS'i24'
p1084
(dp1085
S'i24/I24'
p1086
NssS'thomson'
p1087
(dp1088
S'thomson/RCT3004'
p1089
NsS'thomson/RCT2100'
p1090
NsS'thomson/RCT4130S'
p1091
NsS'thomson/ROC230'
p1092
NsS'thomson/DCI104ICS'
p1093
NsS'thomson/RCT_311_SE1G'
p1094
NsS'thomson/ROC_1404'
p1095
NsS'thomson/ROC85'
p1096
NsS'thomson/RC8003N'
p1097
NsS'thomson/RCT102'
p1098
NsS'thomson/ROC-3205'
p1099
NsS'thomson/TM9258'
p1100
NsS'thomson/ROC340'
p1101
NsS'thomson/RCS615TCLM1'
p1102
NsS'thomson/ROC740'
p1103
NsS'thomson/ROC3205'
p1104
NsS'thomson/RCT100'
p1105
NsS'thomson/RCT_311_SC1G'
p1106
NsS'thomson/RCT443_MN1'
p1107
NsS'thomson/TC99'
p1108
NsS'thomson/RC4208x'
p1109
NsS'thomson/RCT4131'
p1110
NsS'thomson/ROC45'
p1111
NsS'thomson/RC8005M'
p1112
NsS'thomson/ROC40'
p1113
NsS'thomson/KCT5000'
p1114
NsS'thomson/RC111TA1G'
p1115
NsS'thomson/RCT311DA2'
p1116
NsS'thomson/RCT110D_A1'
p1117
NsS'thomson/mb_100'
p1118
NsS'thomson/RC8002N'
p1119
NssS'directv'
p1120
(dp1121
S'directv/HD20-100'
p1122
NsS'directv/G051204'
p1123
NsS'directv/H23'
p1124
NsS'directv/RC32'
p1125
NsS'directv/RC24'
p1126
NsS'directv/RC64'
p1127
NsS'directv/RC16.irman'
p1128
NsS'directv/RC16'
p1129
NssS'scott'
p1130
(dp1131
S'scott/DVD-838'
p1132
NsS'scott/DVD-837'
p1133
NssS'itt'
p1134
(dp1135
S'itt/RC40.a'
p1136
NsS'itt/VR-3760'
p1137
NsS'itt/RC51'
p1138
NsS'itt/RC40'
p1139
NssS'hauppauge'
p1140
(dp1141
S'hauppauge/lircd.conf.hauppauge-stb'
p1142
NsS'hauppauge/MVP'
p1143
NsS'hauppauge/lircd.conf.hauppauge.irman'
p1144
NsS'hauppauge/WinTV-HVR_900'
p1145
NsS'hauppauge/DSR-0112'
p1146
NsS'hauppauge/DSR-0095'
p1147
NsS'hauppauge/lircd.conf.hauppauge'
p1148
NsS'hauppauge/SupportPlus7'
p1149
NsS'hauppauge/R808-HPG'
p1150
NssS'zyxel'
p1151
(dp1152
S'zyxel/DMA-1000'
p1153
NssS'home_cable'
p1154
(dp1155
S'home_cable/HCC9300'
p1156
NssS'goodmans'
p1157
(dp1158
S'goodmans/GDB_3'
p1159
NsS'goodmans/RC-BM'
p1160
NsS'goodmans/MD-305'
p1161
NsS'goodmans/GDVD124'
p1162
NssS'apex'
p1163
(dp1164
S'apex/K12B-C2'
p1165
NsS'apex/DT250'
p1166
NsS'apex/RM-2600'
p1167
NsS'apex/K12K-C5'
p1168
NsS'apex/DV-R200'
p1169
NsS'apex/RM-1200'
p1170
NsS'apex/AD-600A'
p1171
NsS'apex/DV-R383'
p1172
NssS'dream_multimedia'
p1173
(dp1174
S'dream_multimedia/URC-39930RJ0-03'
p1175
NsS'dream_multimedia/DM_7000.irman'
p1176
S'dream_multimedia/DM_7000.jpg'
p1177
sS'dream_multimedia/URC-39730-B00'
p1178
NssS'denver'
p1179
(dp1180
S'denver/DVD-228'
p1181
NssS'kenwood'
p1182
(dp1183
S'kenwood/RC-R0517'
p1184
NsS'kenwood/RC-56'
p1185
NsS'kenwood/RC-S0504'
p1186
NsS'kenwood/RC-P2030'
p1187
NsS'kenwood/RC-V8500L'
p1188
NsS'kenwood/RC-C2'
p1189
NsS'kenwood/RC-E5'
p1190
NsS'kenwood/AVREC'
p1191
NsS'kenwood/RC-P600'
p1192
NsS'kenwood/RC-G3'
p1193
NsS'kenwood/RC-601.irman'
p1194
NsS'kenwood/RC-LVD930R'
p1195
NsS'kenwood/RC-160'
p1196
NsS'kenwood/RC-D0705'
p1197
NsS'kenwood/RC-H7R'
p1198
NsS'kenwood/RC-RO711'
p1199
NsS'kenwood/RC-P0715'
p1200
NsS'kenwood/RC-M0701'
p1201
NsS'kenwood/RC-701R'
p1202
NsS'kenwood/RC-R0825'
p1203
NsS'kenwood/RC-SA70'
p1204
NsS'kenwood/RC-P0700'
p1205
NsS'kenwood/RC-P0702'
p1206
NsS'kenwood/RC-R0900'
p1207
NsS'kenwood/RC-R0721'
p1208
NsS'kenwood/RC-P800'
p1209
NsS'kenwood/RC-1001'
p1210
NsS'kenwood/RC-47'
p1211
NsS'kenwood/RC-R0503'
p1212
NsS'kenwood/RC-R0502'
p1213
NsS'kenwood/RC-R0505'
p1214
NsS'kenwood/RC_R0307'
p1215
NsS'kenwood/RC-R0623'
p1216
NsS'kenwood/RC-R0602'
p1217
NsS'kenwood/RC-M0301'
p1218
NsS'kenwood/RC-R0708'
p1219
NsS'kenwood/RC-F0100'
p1220
NsS'kenwood/RC-S0900'
p1221
NsS'kenwood/RC-206'
p1222
NsS'kenwood/RC-F2'
p1223
NsS'kenwood/RC-553e'
p1224
NsS'kenwood/RC-A0400'
p1225
NsS'kenwood/RC-R0614'
p1226
NsS'kenwood/RC-P6630'
p1227
NsS'kenwood/RC-R0813'
p1228
NsS'kenwood/RC-790'
p1229
NsS'kenwood/RC-P030'
p1230
NsS'kenwood/RC-R0311E'
p1231
NsS'kenwood/RC-H2R'
p1232
NsS'kenwood/RC-P87'
p1233
NsS'kenwood/RC-6030.irman'
p1234
NsS'kenwood/RC-P070'
p1235
NsS'kenwood/RC-P0400'
p1236
NssS'rubin'
p1237
(dp1238
S'rubin/54M03'
p1239
NssS'meridian'
p1240
(dp1241
S'meridian/MSR'
p1242
NssS'caraca'
p1243
(dp1244
S'caraca/lircd.conf.caraca'
p1245
NssS'jerrold'
p1246
(dp1247
S'jerrold/RT-J50'
p1248
NsS'jerrold/MRC_550'
p1249
NsS'jerrold/RC-OSD'
p1250
NsS'jerrold/RC_55-OSD'
p1251
NsS'jerrold/CFT2000'
p1252
NsS'jerrold/MRC_500'
p1253
NssS'nokia'
p1254
(dp1255
S'nokia/DBOX'
p1256
NsS'nokia/MM9600'
p1257
NsS'nokia/MM9780S'
p1258
NsS'nokia/MM9850T'
p1259
NsS'nokia/RCN_624'
p1260
NsS'nokia/DBOX2'
p1261
NsS'nokia/MM9802S'
p1262
NsS'nokia/VC_620'
p1263
NsS'nokia/RCN610'
p1264
NsS'nokia/SCN600'
p1265
NsS'nokia/VCN620'
p1266
NsS'nokia/VCR_3018_CE'
p1267
NssS'toshiba'
p1268
(dp1269
S'toshiba/RM-614Q'
p1270
NsS'toshiba/VC-642T'
p1271
NsS'toshiba/RM-A210'
p1272
NsS'toshiba/G83C0008A110'
p1273
NsS'toshiba/CT-90298'
p1274
NsS'toshiba/DC-SBH2'
p1275
NsS'toshiba/TDP-S2'
p1276
NsS'toshiba/VC-685'
p1277
NsS'toshiba/SE-R0049'
p1278
NsS'toshiba/SE-R0047'
p1279
NsS'toshiba/CT-9758'
p1280
NsS'toshiba/CT-9873'
p1281
NsS'toshiba/CT-865'
p1282
NsS'toshiba/VC-65T'
p1283
NsS'toshiba/CT-9952'
p1284
NsS'toshiba/VC-65'
p1285
NsS'toshiba/SE-R0031'
p1286
NsS'toshiba/VT-11'
p1287
NsS'toshiba/CT-847'
p1288
NsS'toshiba/SE-R0058'
p1289
NsS'toshiba/CT-90275'
p1290
NsS'toshiba/VT-12'
p1291
NsS'toshiba/CT-90047'
p1292
NsS'toshiba/VT-204G'
p1293
NsS'toshiba/VC-752'
p1294
NsS'toshiba/CT-90003'
p1295
NsS'toshiba/CT-90101'
p1296
NsS'toshiba/CT-835S'
p1297
NsS'toshiba/CT-9784'
p1298
NsS'toshiba/TSR-101R'
p1299
NsS'toshiba/CT-9347'
p1300
NsS'toshiba/CT-9573'
p1301
NsS'toshiba/VC-222T'
p1302
NsS'toshiba/VC-90B'
p1303
NsS'toshiba/VT-75F'
p1304
NsS'toshiba/VC-685.irman'
p1305
NsS'toshiba/SE-R0090'
p1306
NsS'toshiba/CT-90287'
p1307
NsS'toshiba/CT-9922'
p1308
NsS'toshiba/CT-9945'
p1309
NsS'toshiba/SE-R0313'
p1310
NsS'toshiba/SE-R0127'
p1311
NsS'toshiba/CT-9954'
p1312
NsS'toshiba/CT-826'
p1313
NsS'toshiba/CT-90205'
p1314
NsS'toshiba/CT-90159'
p1315
NsS'toshiba/CT-832'
p1316
NsS'toshiba/RMV-329.irman'
p1317
NsS'toshiba/CT-816'
p1318
NsS'toshiba/VCR-2230'
p1319
NsS'toshiba/CT-9881'
p1320
NsS'toshiba/CT-90038'
p1321
NsS'toshiba/VT-209W'
p1322
NsS'toshiba/CT-859'
p1323
NssS'casio'
p1324
(dp1325
S'casio/CMD-40'
p1326
NssS'ferguson'
p1327
(dp1328
S'ferguson/RC8X02NX'
p1329
NssS'commodore'
p1330
(dp1331
S'commodore/CDTV'
p1332
NssS'technosonic'
p1333
(dp1334
S'technosonic/DVD-204'
p1335
NssS'provision'
p1336
(dp1337
S'provision/PRDVD2166'
p1338
NsS'provision/PR-DVD2.0'
p1339
NssS'sanyo'
p1340
(dp1341
S'sanyo/B28001'
p1342
NsS'sanyo/A05800'
p1343
NsS'sanyo/CXKT'
p1344
NsS'sanyo/B01004'
p1345
NsS'sanyo/B01007'
p1346
NsS'sanyo/VHR-766G'
p1347
NsS'sanyo/IR-5211'
p1348
NsS'sanyo/TV2'
p1349
NsS'sanyo/US-038-S'
p1350
NsS'sanyo/B13509'
p1351
NsS'sanyo/B12628'
p1352
NsS'sanyo/B13540'
p1353
NsS'sanyo/B13537'
p1354
NsS'sanyo/VCR-9270'
p1355
NsS'sanyo/RB-SL22'
p1356
NsS'sanyo/CTP_6633'
p1357
NsS'sanyo/RMT-U100'
p1358
NsS'sanyo/RC700'
p1359
NsS'sanyo/JXMTA'
p1360
NsS'sanyo/RC-105C'
p1361
NsS'sanyo/TV'
p1362
NsS'sanyo/RB-DA300'
p1363
NsS'sanyo/B20501'
p1364
NsS'sanyo/CTP-6791P'
p1365
NsS'sanyo/N9377'
p1366
NsS'sanyo/JXZB'
p1367
NssS'bestbuy'
p1368
(dp1369
S'bestbuy/lircd.conf.bestbuy2'
p1370
NsS'bestbuy/lircd.conf.bestbuy'
p1371
NssS'ranex'
p1372
(dp1373
S'ranex/RGB_LED_LAMP_6000.191'
p1374
NssS'peekton'
p1375
(dp1376
S'peekton/IR6005'
p1377
NssS'dk_digital'
p1378
(dp1379
S'dk_digital/DVD-228'
p1380
NsS'dk_digital/DVD-585'
p1381
NssS'x10'
p1382
(dp1383
S'x10/lircd.conf.atilibusb'
p1384
NsS'x10/lircd.conf.atiusb'
p1385
NsS'x10/lircd.conf.mouseremote'
p1386
NsS'x10/lircd.conf.mp3anywhere'
p1387
NssS'terratec'
p1388
(dp1389
S'terratec/1400_DVB-T'
p1390
NsS'terratec/Cinergy_S2_PCI_HD'
p1391
NsS'terratec/M3PO'
p1392
NsS'terratec/Cinergy_DT_USB_XS_Diversity'
p1393
NsS'terratec/HomeArena_5.1'
p1394
NsS'terratec/Cinergy_T2'
p1395
NsS'terratec/Cinergy_TV'
p1396
NsS'terratec/Cinergy_C_PCI_HD'
p1397
NsS'terratec/Cinergy_1400-T'
p1398
NssS'norcent'
p1399
(dp1400
S'norcent/DP_311'
p1401
NssS'cyberhome'
p1402
(dp1403
S'cyberhome/CH-DVD-302'
p1404
NsS'cyberhome/CH-DVD_504'
p1405
NsS'cyberhome/AD-L_528'
p1406
NsS'cyberhome/CH-DVD_402'
p1407
NsS'cyberhome/ADL-528'
p1408
NsS'cyberhome/RMC-300Z'
p1409
NssS'ei'
p1410
(dp1411
S'ei/TV90'
p1412
NssS'metz'
p1413
(dp1414
S'metz/RA51'
p1415
NssS'rolsen'
p1416
(dp1417
S'rolsen/DK5A'
p1418
NsS'rolsen/K10B-C1'
p1419
NssS'viewmaxpro'
p1420
(dp1421
S'viewmaxpro/CABLE_BOX'
p1422
NssS'protek'
p1423
(dp1424
S'protek/SAT'
p1425
NssS'shannon'
p1426
(dp1427
S'shannon/SWK-8630'
p1428
NssS'multichoice'
p1429
(dp1430
S'multichoice/DSD910'
p1431
NssS'dart_europe'
p1432
(dp1433
S'dart_europe/lircd.conf.tv_radio_live'
p1434
NssS'sansui'
p1435
(dp1436
S'sansui/RS-S103'
p1437
NssS'auvisio'
p1438
(dp1439
S'auvisio/VRC-1100_Ro'
p1440
NssS'zehnder'
p1441
(dp1442
S'zehnder/BX-299'
p1443
NssS'dse'
p1444
(dp1445
S'dse/G1928'
p1446
NsS'dse/G7659'
p1447
NsS'dse/G1605'
p1448
NssS'aristona'
p1449
(dp1450
S'aristona/RC9067'
p1451
NsS'aristona/RC5525'
p1452
NsS'aristona/37TA1274_03'
p1453
NssS'foxtel'
p1454
(dp1455
S'foxtel/Digital_Satellite_STB'
p1456
NsS'foxtel/STU-120'
p1457
NsS'foxtel/Digital_Cable_STB'
p1458
NssS'kawa'
p1459
(dp1460
S'kawa/TV'
p1461
NssS'silvercrest'
p1462
(dp1463
S'silvercrest/URC-801'
p1464
NsS'silvercrest/RCH7S52'
p1465
NssS'acorp'
p1466
(dp1467
S'acorp/lircd.conf.acorp-878y'
p1468
NssS'hampton_bay'
p1469
(dp1470
S'hampton_bay/UC7078T'
p1471
NsS'hampton_bay/Window_AC'
p1472
NssS'hyundai'
p1473
(dp1474
S'hyundai/H-HT5111'
p1475
NsS'hyundai/H-DVD5038N'
p1476
NsS'hyundai/ImageQuest_L17T'
p1477
NssS'free'
p1478
(dp1479
S'free/Freebox_V5'
p1480
NsS'free/Freebox'
p1481
NssS'ntl'
p1482
(dp1483
S'ntl/DI4001N'
p1484
NssS'compro'
p1485
(dp1486
S'compro/DVB-T200'
p1487
NsS'compro/VideoMate-K300'
p1488
NssS'anysee'
p1489
(dp1490
S'anysee/DVB-T'
p1491
NssS'govideo'
p1492
(dp1493
S'govideo/D2730'
p1494
NssS'uniden'
p1495
(dp1496
S'uniden/UDS200r'
p1497
NssS'chaparral'
p1498
(dp1499
S'chaparral/11-5315-1'
p1500
NssS'supersqny'
p1501
(dp1502
S'supersqny/KM-168'
p1503
NssS'isp'
p1504
(dp1505
S'isp/4187'
p1506
NssS'clarion'
p1507
(dp1508
S'clarion/RCB-177'
p1509
NsS'clarion/RCB-130'
p1510
NssS'homecast'
p1511
(dp1512
S'homecast/DVB-S'
p1513
NsS'homecast/DVB-T'
p1514
NssS'att'
p1515
(dp1516
S'att/RC1534801_00.irman'
p1517
S'att/RC1534801_00.jpg'
p1518
sS'att/U-Verse'
p1519
NssS'recor'
p1520
(dp1521
S'recor/TV-4025'
p1522
NssS'knc_one'
p1523
(dp1524
S'knc_one/lircd.conf.knc_one'
p1525
NssS'furby'
p1526
(dp1527
S'furby/FURBY'
p1528
NssS'shinco'
p1529
(dp1530
S'shinco/RC-1730'
p1531
NssS'technotrend'
p1532
(dp1533
S'technotrend/REMOTE'
p1534
NsS'technotrend/S2400'
p1535
NsS'technotrend/TV-Card'
p1536
NsS'technotrend/DVB_S2-3200'
p1537
NsS'technotrend/Micro_S202'
p1538
NssS'atiusb'
p1539
(dp1540
S'atiusb/lircd.conf.atilibusb'
p1541
NsS'atiusb/lircd.conf.atiusb'
p1542
NssS'elmo'
p1543
(dp1544
S'elmo/PRC-100S'
p1545
NssS'contour'
p1546
(dp1547
S'contour/LXI'
p1548
NssS'mvision'
p1549
(dp1550
S'mvision/FCIS7000E+'
p1551
NssS'hirschmann'
p1552
(dp1553
S'hirschmann/RC_426'
p1554
NssS'kingman'
p1555
(dp1556
S'kingman/12in1_299'
p1557
NsS'kingman/10in1'
p1558
NsS'kingman/12in1_336'
p1559
NssS'digital_stream'
p1560
(dp1561
S'digital_stream/DTX9900'
p1562
NssS'interact'
p1563
(dp1564
S'interact/I-22121'
p1565
NssS'korting'
p1566
(dp1567
S'korting/0099N1'
p1568
NssS'avex'
p1569
(dp1570
S'avex/RC501'
p1571
NsS'avex/URC-R6'
p1572
NsS'avex/AV5609'
p1573
NssS'radio_shack'
p1574
(dp1575
S'radio_shack/5-in-1'
p1576
NsS'radio_shack/4-in-1_2142'
p1577
NsS'radio_shack/AB_Switcher'
p1578
NsS'radio_shack/5-in-1_2115'
p1579
NssS'technoline'
p1580
(dp1581
S'technoline/TL-1062'
p1582
NssS'telefunken'
p1583
(dp1584
S'telefunken/MB2100'
p1585
NsS'telefunken/TC141'
p1586
NsS'telefunken/FB1320'
p1587
NsS'telefunken/RC_5104N'
p1588
NsS'telefunken/IR3000'
p1589
NsS'telefunken/RC7106M'
p1590
NsS'telefunken/TVRC_1345_TOP'
p1591
NsS'telefunken/RC1323-VIDEO-B'
p1592
NsS'telefunken/VZ901.raw'
p1593
NsS'telefunken/RC1132'
p1594
NsS'telefunken/FB270.raw'
p1595
NsS'telefunken/TV'
p1596
NsS'telefunken/FB1550'
p1597
NsS'telefunken/RC_1127'
p1598
NssS'azbox'
p1599
(dp1600
S'azbox/S700'
p1601
NssS'marantz'
p1602
(dp1603
S'marantz/RMC-73'
p1604
NsS'marantz/RC4300CC'
p1605
NsS'marantz/RC1400-MD'
p1606
NsS'marantz/RC-6200-DV'
p1607
NsS'marantz/RC4000CD'
p1608
NsS'marantz/RC-1400'
p1609
NsS'marantz/RC-72CD'
p1610
NsS'marantz/RC-63CD'
p1611
NsS'marantz/RC-65CD'
p1612
NsS'marantz/RC8000PM'
p1613
NssS'akai'
p1614
(dp1615
S'akai/RC-V99A'
p1616
NsS'akai/RC-V23E'
p1617
NsS'akai/RC-C79'
p1618
NsS'akai/RC-61A'
p1619
NsS'akai/RC-V22A'
p1620
NsS'akai/RC-W201G'
p1621
NsS'akai/RC-V420E.irman'
p1622
NsS'akai/RC-S59'
p1623
NsS'akai/V425A'
p1624
NsS'akai/RC-Y121G'
p1625
NsS'akai/RC-AAV2100'
p1626
NsS'akai/TV'
p1627
NsS'akai/RC-S67'
p1628
NsS'akai/RC891'
p1629
NsS'akai/RC-X626E.irman'
p1630
NsS'akai/RC-S115'
p1631
NsS'akai/RC-W212F'
p1632
NsS'akai/RC-W152E'
p1633
NsS'akai/RC-S590'
p1634
NsS'akai/RC-C37'
p1635
NsS'akai/RC-X121E'
p1636
NssS'xtreamer'
p1637
(dp1638
S'xtreamer/Xtreamer'
p1639
NssS'tokai'
p1640
(dp1641
S'tokai/DVD-715'
p1642
NssS'tivo'
p1643
(dp1644
S'tivo/TIVO'
p1645
NsS'tivo/TIVO_Glo'
p1646
NsS'tivo/TIVO_Series_2'
p1647
NsS'tivo/DTV36'
p1648
NsS'tivo/TIVO_Series_1'
p1649
NsS'tivo/TIVO_Series_2.tira'
p1650
NsS'tivo/TIVO.irman'
p1651
NssS'typhoon'
p1652
(dp1653
S'typhoon/Starbox'
p1654
NsS'typhoon/RC-0718-3'
p1655
NssS'intervision'
p1656
(dp1657
S'intervision/Intervision'
p1658
NssS'avtoolbox'
p1659
(dp1660
S'avtoolbox/SW-5070'
p1661
NssS'elite'
p1662
(dp1663
S'elite/9361-3EL'
p1664
NssS'roadstar'
p1665
(dp1666
S'roadstar/DVD_2020H'
p1667
NssS'lenovo'
p1668
(dp1669
S'lenovo/RC2292601_01'
p1670
NssS'olevia'
p1671
(dp1672
S'olevia/RC-LTL'
p1673
NsS'olevia/RC-LTFN'
p1674
NssS'nordmende'
p1675
(dp1676
S'nordmende/VCR'
p1677
NssS'horizont'
p1678
(dp1679
S'horizont/RC6-2'
p1680
NssS'salora'
p1681
(dp1682
S'salora/RC-8800'
p1683
NsS'salora/SV6700'
p1684
NsS'salora/VCN621'
p1685
NsS'salora/PayTV'
p1686
NssS'universum'
p1687
(dp1688
S'universum/FT8180'
p1689
NsS'universum/B21421'
p1690
NsS'universum/VCR'
p1691
NsS'universum/SR420'
p1692
NsS'universum/FT8180A'
p1693
NsS'universum/RC-0892_00'
p1694
NsS'universum/VR743A'
p1695
NsS'universum/STEREO'
p1696
NsS'universum/TV'
p1697
NsS'universum/VR_2959'
p1698
NsS'universum/VR_2796'
p1699
NssS'mStation'
p1700
(dp1701
S'mStation/lircd.conf.mStation'
p1702
NssS'speed-link'
p1703
(dp1704
S'speed-link/SL-6399'
p1705
NsS'speed-link/SL-4112'
p1706
NssS'videologic'
p1707
(dp1708
S'videologic/RM-201'
p1709
NssS'sab'
p1710
(dp1711
S'sab/Explorer'
p1712
NssS'kworld'
p1713
(dp1714
S'kworld/DVBT-220'
p1715
NsS'kworld/DVBT-PE310'
p1716
NsS'kworld/lircd.conf.kworld'
p1717
NsS'kworld/ATSC_110'
p1718
NsS'kworld/PCI_Analog_TV_Card_Lite'
p1719
NsS'kworld/DVB-T_210'
p1720
NssS'funai'
p1721
(dp1722
S'funai/VCR_21C-450'
p1723
NsS'funai/V3EE_MK6'
p1724
NsS'funai/V-8008CM_MKII'
p1725
NsS'funai/VCR_8307CA'
p1726
NsS'funai/N9479'
p1727
NssS'wilfa'
p1728
(dp1729
S'wilfa/RVC-17'
p1730
NssS'audiosource'
p1731
(dp1732
S'audiosource/SS-Three'
p1733
NssS'imon'
p1734
(dp1735
S'imon/lircd.conf.imon-rsc'
p1736
NsS'imon/lircd.conf.imon-knob'
p1737
NsS'imon/lircd.conf.imon-pad'
p1738
NsS'imon/lircd.conf.imon-2.4g'
p1739
NsS'imon/lircd.conf.imon-mceusb'
p1740
NsS'imon/lircd.conf.imon-ultrabay'
p1741
NsS'imon/lircd.conf.imon'
p1742
NsS'imon/lircd.conf.imon-antec-veris'
p1743
NsS'imon/lircd.conf.imon-2.4g-lt'
p1744
NssS'sherwood'
p1745
(dp1746
S'sherwood/RM-RX-23_43'
p1747
NsS'sherwood/RM-RVD-98L'
p1748
NsS'sherwood/RM-636'
p1749
NsS'sherwood/GC-1285'
p1750
NsS'sherwood/S2770R-CP-II'
p1751
NsS'sherwood/CD_1063-TR.irman'
p1752
NsS'sherwood/CD_1063-TR'
p1753
NsS'sherwood/RM-RV-98'
p1754
NsS'sherwood/RM-RV-N25'
p1755
NsS'sherwood/RM-101'
p1756
NsS'sherwood/GC-1205'
p1757
NsS'sherwood/RM-RD-61'
p1758
NssS'nakamichi'
p1759
(dp1760
S'nakamichi/RM-2CD'
p1761
NsS'nakamichi/CDPlayer4'
p1762
NsS'nakamichi/Egg'
p1763
NssS'televes'
p1764
(dp1765
S'televes/145075'
p1766
NssS'pinnacle_systems'
p1767
(dp1768
S'pinnacle_systems/lircd.conf.pctv'
p1769
NsS'pinnacle_systems/PCTV'
p1770
NsS'pinnacle_systems/lircd.conf.mini'
p1771
NsS'pinnacle_systems/PCTV_USB_STICK'
p1772
NsS'pinnacle_systems/PCTV_800i'
p1773
NsS'pinnacle_systems/RC1144201_00'
p1774
NsS'pinnacle_systems/RC-42D'
p1775
NssS'magnum'
p1776
(dp1777
S'magnum/5520VT'
p1778
NssS'sirius'
p1779
(dp1780
S'sirius/Sportster'
p1781
NsS'sirius/SBKB-3201KR'
p1782
NsS'sirius/Starmate_Replay_ST2'
p1783
NssS'domland'
p1784
(dp1785
S'domland/MH10CA'
p1786
NssS'philex'
p1787
(dp1788
S'philex/RC208-1'
p1789
NssS'xms'
p1790
(dp1791
S'xms/XMS503'
p1792
NssS'nextwave'
p1793
(dp1794
S'nextwave/EX-300'
p1795
NssS'total_media_in_hand'
p1796
(dp1797
S'total_media_in_hand/DVB-T'
p1798
NssS'grandin'
p1799
(dp1800
S'grandin/TV'
p1801
NssS'logitech'
p1802
(dp1803
S'logitech/Harmony_655'
p1804
NsS'logitech/Z-5500D'
p1805
NsS'logitech/HarmonyOne'
p1806
NsS'logitech/Harmony_520'
p1807
NsS'logitech/lircd.conf.logitech'
p1808
NssS'cambridge_audio'
p1809
(dp1810
S'cambridge_audio/RC-DVD53'
p1811
NsS'cambridge_audio/RC-340AC_540AC_640AC'
p1812
NsS'cambridge_audio/RC-DVD55'
p1813
NsS'cambridge_audio/X40A'
p1814
NsS'cambridge_audio/RC-540R_V2_0'
p1815
NsS'cambridge_audio/CD'
p1816
NssS'arcam'
p1817
(dp1818
S'arcam/AV200'
p1819
NsS'arcam/ARCAM'
p1820
NssS'rega'
p1821
(dp1822
S'rega/Solar'
p1823
NssS'd-link'
p1824
(dp1825
S'd-link/i2eye'
p1826
NsS'd-link/DSM320'
p1827
NsS'd-link/DSM-10'
p1828
NssS'finlux'
p1829
(dp1830
S'finlux/3628'
p1831
NssS'turtlebeach'
p1832
(dp1833
S'turtlebeach/audiotron'
p1834
NssS'supportplus'
p1835
(dp1836
S'supportplus/SP-URC-LCD-F15'
p1837
NsS'supportplus/SP-URC-81-L'
p1838
NsS'supportplus/RC9'
p1839
NssS'teco'
p1840
(dp1841
S'teco/TZRM67G'
p1842
NssS'pansat'
p1843
(dp1844
S'pansat/2700a'
p1845
NsS'pansat/SD3500'
p1846
NsS'pansat/2700'
p1847
NsS'pansat/2500A'
p1848
NssS'asus'
p1849
(dp1850
S'asus/lircd.conf.asusdh'
p1851
NsS'asus/lircd.conf.digimatrix'
p1852
NsS'asus/DigiMatrix'
p1853
NsS'asus/lircd.conf.asus'
p1854
NsS'asus/Digital_Home'
p1855
NsS'asus/TVBox'
p1856
NsS'asus/RC1974502_00'
p1857
NssS'pipi'
p1858
(dp1859
S'pipi/PiPiPC'
p1860
NssS'microsoft'
p1861
(dp1862
S'microsoft/Xbox360'
p1863
NsS'microsoft/Xbox_PG-8012'
p1864
NsS'microsoft/Xbox'
p1865
NsS'microsoft/Xbox_MCE'
p1866
NsS'microsoft/lircd.conf.xbox'
p1867
NssS'dynex'
p1868
(dp1869
S'dynex/DX-CVS4'
p1870
NssS'technisat'
p1871
(dp1872
S'technisat/100TS023'
p1873
NsS'technisat/103TS103'
p1874
NsS'technisat/100TS035'
p1875
NsS'technisat/FBTV235S'
p1876
NsS'technisat/FBPNA35'
p1877
NsS'technisat/100TS036'
p1878
NsS'technisat/ST3002S'
p1879
NsS'technisat/100TS008'
p1880
NsS'technisat/TS35'
p1881
NsS'technisat/lircd.conf.mediafocusI'
p1882
NsS'technisat/TTS35AI'
p1883
NsS'technisat/FBPVR335A'
p1884
NsS'technisat/ST_6000_E'
p1885
NssS'radix'
p1886
(dp1887
S'radix/SAT1'
p1888
NsS'radix/DTR-9000-Twin'
p1889
NsS'radix/2AD'
p1890
NsS'radix/DT-X1'
p1891
NsS'radix/SAT'
p1892
NsS'radix/Alpha_10_20'
p1893
NssS'belkin'
p1894
(dp1895
S'belkin/F5X019'
p1896
NssS'iodata'
p1897
(dp1898
S'iodata/lircd.conf.gvbctv5pci'
p1899
NssS'melectronic'
p1900
(dp1901
S'melectronic/PP3600'
p1902
NssS'irradio'
p1903
(dp1904
S'irradio/HIFI_1300V'
p1905
NssS'sungale'
p1906
(dp1907
S'sungale/JX-2002'
p1908
NssS'hokkaido'
p1909
(dp1910
S'hokkaido/Airconditioner'
p1911
NssS'aiwa'
p1912
(dp1913
S'aiwa/RC-X97'
p1914
NsS'aiwa/S79'
p1915
NsS'aiwa/RC-ZAS01'
p1916
NsS'aiwa/RC-ZAS02'
p1917
NsS'aiwa/RC-6AT03'
p1918
NsS'aiwa/RC-AAT11'
p1919
NsS'aiwa/RC-TN500EX'
p1920
NsS'aiwa/RC-7AS06'
p1921
NsS'aiwa/RC-8AT02'
p1922
NsS'aiwa/RC-TN5L'
p1923
NsS'aiwa/RC-TZ800'
p1924
NsS'aiwa/RC-TN380B'
p1925
NsS'aiwa/RC-TN320EX'
p1926
NsS'aiwa/RC-T503'
p1927
NsS'aiwa/RC-TXG710'
p1928
NsS'aiwa/RC-C202'
p1929
NsS'aiwa/RC-T501'
p1930
NsS'aiwa/RC-6AS14'
p1931
NsS'aiwa/RC-T504'
p1932
NsS'aiwa/RC-TZ650'
p1933
NsS'aiwa/RC-T506'
p1934
NsS'aiwa/RC-TD3'
p1935
NsS'aiwa/RC-C105'
p1936
NsS'aiwa/RC-TN330'
p1937
NsS'aiwa/RC-ZAT04'
p1938
NsS'aiwa/RC-ZVR04'
p1939
NsS'aiwa/RC-C003'
p1940
NsS'aiwa/RC-8AS04'
p1941
NsS'aiwa/RC-L60E'
p1942
NsS'aiwa/RC-950LE'
p1943
NsS'aiwa/RC-ZAS10'
p1944
NsS'aiwa/RC-TN520EX'
p1945
NsS'aiwa/RC-T770F'
p1946
NsS'aiwa/RC-L01'
p1947
NsS'aiwa/RC-TZ650.irman'
p1948
NsS'aiwa/RC-AAR02'
p1949
NsS'aiwa/RC-TG100'
p1950
NsS'aiwa/RC-BVR02'
p1951
NsS'aiwa/RC-TV2'
p1952
NsS'aiwa/RC-ZVR02'
p1953
NsS'aiwa/RC-AVT02'
p1954
NsS'aiwa/RC-5VP05'
p1955
NsS'aiwa/RC-CAS10'
p1956
NsS'aiwa/RC-TN360'
p1957
NsS'aiwa/XR-MD201'
p1958
NsS'aiwa/RC-TZ95ML'
p1959
NsS'aiwa/RC-6AS07'
p1960
NssS'replaytv'
p1961
(dp1962
S'replaytv/5000'
p1963
NssS'symphonic'
p1964
(dp1965
S'symphonic/SE4250'
p1966
NsS'symphonic/N9291'
p1967
NssS'bush'
p1968
(dp1969
S'bush/WS6680'
p1970
NsS'bush/DFTA1xi'
p1971
NsS'bush/4400'
p1972
NssS'thompson'
p1973
(dp1974
S'thompson/TIVO_THOMPSON'
p1975
NssS'palcom'
p1976
(dp1977
S'palcom/DSL-6_T'
p1978
NssS'axion'
p1979
(dp1980
S'axion/AXN-6075'
p1981
NssS'eltax'
p1982
(dp1983
S'eltax/Corniche'
p1984
NssS'fuba'
p1985
(dp1986
S'fuba/BAT970004A3'
p1987
NsS'fuba/ODE_520'
p1988
NsS'fuba/ST-007'
p1989
NssS'avermedia'
p1990
(dp1991
S'avermedia/RM-KV'
p1992
NsS'avermedia/lircd.conf.RM-FP'
p1993
NsS'avermedia/lircd.conf.vdomate'
p1994
NsS'avermedia/Studio_203'
p1995
NsS'avermedia/lircd.conf.tvstudio'
p1996
NsS'avermedia/DVB-T_771'
p1997
NsS'avermedia/AVerTV_Box_5'
p1998
NsS'avermedia/lircd.conf.avermedia.98'
p1999
NsS'avermedia/lircd.conf.avermedia98'
p2000
NsS'avermedia/lircd.conf.avermedia'
p2001
NsS'avermedia/RM-H7'
p2002
NssS'remotec'
p2003
(dp2004
S'remotec/RM900'
p2005
NsS'remotec/RM200-TV'
p2006
NsS'remotec/RM200-VCR'
p2007
NsS'remotec/VCR-1072'
p2008
NsS'remotec/lircd.conf.BW6130'
p2009
NsS'remotec/RM200'
p2010
NsS'remotec/RM200-AUX'
p2011
NsS'remotec/RM200-SAT'
p2012
NssS'get'
p2013
(dp2014
S'get/HD_PRV'
p2015
NssS'echostar'
p2016
(dp2017
S'echostar/DSB-616'
p2018
NsS'echostar/301_501_3100_5100_58xx_59xx'
p2019
NsS'echostar/DBS'
p2020
NsS'echostar/119420'
p2021
NsS'echostar/DSB-636'
p2022
NsS'echostar/AD3000IP'
p2023
NsS'echostar/SAT_301'
p2024
NsS'echostar/132578'
p2025
NsS'echostar/Dish_Network'
p2026
NssS'watson'
p2027
(dp2028
S'watson/FA_7039'
p2029
NsS'watson/FA_5150'
p2030
NsS'watson/FA_3619'
p2031
NssS'rademacher'
p2032
(dp2033
S'rademacher/9490'
p2034
NssS'guillemot'
p2035
(dp2036
S'guillemot/RemoteWizard-GN-263'
p2037
NssS'nagra'
p2038
(dp2039
S'nagra/TVA_Digital'
p2040
NssS'ea65'
p2041
(dp2042
S'ea65/lircd.conf.ea65'
p2043
NssS'rft'
p2044
(dp2045
S'rft/TV553'
p2046
NssS'viewsonic'
p2047
(dp2048
S'viewsonic/N3200w'
p2049
NsS'viewsonic/NextVision6'
p2050
NsS'viewsonic/98TR7BD-ONT-VSF'
p2051
NsS'viewsonic/RC00070P'
p2052
NssS'dishnet'
p2053
(dp2054
S'dishnet/301_501_3100_5100_58xx_59xx'
p2055
NsS'dishnet/SAT_301'
p2056
NsS'dishnet/Dish_Network'
p2057
NssS'tcm'
p2058
(dp2059
S'tcm/204-479.364'
p2060
NsS'tcm/212845'
p2061
NsS'tcm/TCM_225926'
p2062
NsS'tcm/204-479.362'
p2063
NsS'tcm/TCM_225925'
p2064
NsS'tcm/TCM_96518'
p2065
NsS'tcm/TCM_218681'
p2066
NsS'tcm/TCM_96518_439'
p2067
NssS'hometech'
p2068
(dp2069
S'hometech/TV'
p2070
NssS'evation'
p2071
(dp2072
S'evation/RC.irman'
p2073
NssS'daytron'
p2074
(dp2075
S'daytron/VCR32-DAU'
p2076
NssS'optimus'
p2077
(dp2078
S'optimus/STAV-3560'
p2079
NssS'national'
p2080
(dp2081
S'national/VEQ0461'
p2082
NssS'cenOmax'
p2083
(dp2084
S'cenOmax/F702'
p2085
NssS'megatron'
p2086
(dp2087
S'megatron/FM105.irman'
p2088
NssS'seg'
p2089
(dp2090
S'seg/CTV_3281-100_VTS'
p2091
NsS'seg/SEG-VCR4300'
p2092
NsS'seg/CT2802'
p2093
NsS'seg/DVD-430'
p2094
NsS'seg/E6900-X020A'
p2095
NsS'seg/SR-040'
p2096
NsS'seg/VR-F2PA'
p2097
NsS'seg/SR800'
p2098
NsS'seg/SR-021'
p2099
NsS'seg/SEG_97P1R2CCF0'
p2100
NsS'seg/VCR2000'
p2101
NssS'streamzap'
p2102
(dp2103
S'streamzap/PC_Remote'
p2104
NsS'streamzap/lircd.conf.streamzap'
p2105
NssS'tivii'
p2106
(dp2107
S'tivii/TiVii_650'
p2108
NssS'oceanic'
p2109
(dp2110
S'oceanic/TV'
p2111
NssS'crown'
p2112
(dp2113
S'crown/RC_647340'
p2114
NsS'crown/CD-80'
p2115
NssS'mustek'
p2116
(dp2117
S'mustek/RMC-V500'
p2118
NsS'mustek/DVD_R_100_LM'
p2119
NsS'mustek/RMC-V300'
p2120
NssS'samsung/AA59-00600A'
p2121
NsS'aconatic'
p2122
(dp2123
S'aconatic/AN-2121_DRS'
p2124
NssS'genius'
p2125
(dp2126
S'genius/DVB-T32'
p2127
NsS'genius/SW_5_1_HT'
p2128
NssS'sasem'
p2129
(dp2130
S'sasem/lircd.conf.sasem'
p2131
NssS'magnasonic'
p2132
(dp2133
S'magnasonic/TV'
p2134
NssS'octaltv'
p2135
(dp2136
S'octaltv/WebTV.irman'
p2137
NssS'wd'
p2138
(dp2139
S'wd/TV_Live'
p2140
NsS'wd/HDTVMediaPlayerV1'
p2141
NssS'lg'
p2142
(dp2143
S'lg/AKB69680403'
p2144
NsS'lg/PBAFA0189A'
p2145
NsS'lg/EV230'
p2146
NsS'lg/BD300'
p2147
NsS'lg/42H3000'
p2148
NsS'lg/6710V00090N'
p2149
NsS'lg/SERVICE_MENU'
p2150
NsS'lg/6710V00090D'
p2151
NsS'lg/6711R1P070B'
p2152
NsS'lg/AKB69680'
p2153
NsS'lg/AKB72915207'
p2154
NsS'lg/6710V00067G'
p2155
NsS'lg/6711R1P072B'
p2156
NsS'lg/MKJ61842704'
p2157
NsS'lg/6710T00009B'
p2158
NsS'lg/6710V00049G'
p2159
NsS'lg/VF28'
p2160
NsS'lg/CL172TW'
p2161
NsS'lg/6710V00133A'
p2162
NsS'lg/MKJ32022805'
p2163
NsS'lg/6710T00003B'
p2164
NsS'lg/AKB33871420'
p2165
NsS'lg/6710V00091N'
p2166
NsS'lg/6710V00070A'
p2167
NsS'lg/6710V00008K'
p2168
NsS'lg/6710CDAP01B'
p2169
NsS'lg/6711A20015N'
p2170
NsS'lg/BC205P'
p2171
NsS'lg/6711R1P073B'
p2172
NsS'lg/EC970W'
p2173
NsS'lg/MKJ40653802'
p2174
NsS'lg/6710CDAL01G'
p2175
NsS'lg/MKJ40653807'
p2176
NsS'lg/CC470TW'
p2177
NsS'lg/6710V00088B'
p2178
NsS'lg/6710V00005G'
p2179
NsS'lg/6710V00070A.irman'
p2180
NsS'lg/MKJ39170805'
p2181
NssS'huth'
p2182
(dp2183
S'huth/RC7011'
p2184
NssS'teleka'
p2185
(dp2186
S'teleka/STR_2060'
p2187
NssS'bose'
p2188
(dp2189
S'bose/WaveRadioCD.irman'
p2190
NsS'bose/WaveRadioCD'
p2191
NsS'bose/WAVERADIO'
p2192
NsS'bose/WaveMusicSystem'
p2193
NssS'askey'
p2194
(dp2195
S'askey/AS-218'
p2196
NssS'telecom_italia'
p2197
(dp2198
S'telecom_italia/Sirio'
p2199
NssS'ecotel'
p2200
(dp2201
S'ecotel/UNIVERSAL'
p2202
NssS'cox'
p2203
(dp2204
S'cox/DCT2224'
p2205
NsS'cox/ATLAS_DVR_PVR_5-DEVICE'
p2206
NssS'kathrein'
p2207
(dp2208
S'kathrein/UFD400'
p2209
NssS'technics'
p2210
(dp2211
S'technics/RAK-CH220WH'
p2212
NsS'technics/RAK-CH115WH'
p2213
NsS'technics/EUR643900'
p2214
NsS'technics/SA-DX950'
p2215
NsS'technics/EUR64796'
p2216
NsS'technics/EUR643880'
p2217
NsS'technics/SL-PS670A'
p2218
NsS'technics/RAK-SU301W'
p2219
NsS'technics/RAK-SL948WK'
p2220
NsS'technics/EUR645273'
p2221
NsS'technics/EUR645275'
p2222
NsS'technics/EUR64799'
p2223
NsS'technics/EUR642100'
p2224
NsS'technics/RAK-SC304W'
p2225
NsS'technics/EUR646497'
p2226
NsS'technics/RAK-SC510W'
p2227
NsS'technics/RAK-CH745WH'
p2228
NsS'technics/RAK-CH144WH'
p2229
NsS'technics/RAK-SA612WH'
p2230
NsS'technics/EUR64713'
p2231
NsS'technics/EUR643861'
p2232
NsS'technics/RAK-CH215WH'
p2233
NsS'technics/RAK-CH426WH.irman'
p2234
NsS'technics/RAK-HDB04WH'
p2235
NsS'technics/EURXP300'
p2236
NsS'technics/RAK-EHA16WH'
p2237
NsS'technics/EUR64798'
p2238
NsS'technics/RAK_SU129WH'
p2239
NssS'adaptec'
p2240
(dp2241
S'adaptec/lircd.conf.AVC-2410'
p2242
NssS'sharpsat'
p2243
(dp2244
S'sharpsat/T28'
p2245
NssS'lacie'
p2246
(dp2247
S'lacie/Lacinema_Premier'
p2248
NsS'lacie/PNE-N1SS'
p2249
NssS'autumnwave'
p2250
(dp2251
S'autumnwave/OnAir_GT'
p2252
NssS'sansonic'
p2253
(dp2254
S'sansonic/FT-300A'
p2255
NssS'raite'
p2256
(dp2257
S'raite/DVD'
p2258
NssS'audiosonic'
p2259
(dp2260
S'audiosonic/TV'
p2261
NsS'audiosonic/TXCD-1240'
p2262
NssS're.x'
p2263
(dp2264
S're.x/SDVD_926G'
p2265
NssS'majestic'
p2266
(dp2267
S'majestic/DVX377USB'
p2268
NssS'trust'
p2269
(dp2270
S'trust/RC-2400'
p2271
NssS'seiko'
p2272
(dp2273
S'seiko/MDL-1100RM'
p2274
NssS'amino'
p2275
(dp2276
S'amino/STB'
p2277
NssS'freecom'
p2278
(dp2279
S'freecom/MP35'
p2280
NssS'bbk'
p2281
(dp2282
S'bbk/PV400s'
p2283
NsS'bbk/DV963SM'
p2284
NsS'bbk/RC022-03R'
p2285
NsS'bbk/NP101S-v2'
p2286
NssS'bang&olufsen'
p2287
(dp2288
S'bang&olufsen/Beo4'
p2289
NssS'mark'
p2290
(dp2291
S'mark/TV'
p2292
NssS'starview'
p2293
(dp2294
S'starview/Starview_I'
p2295
NssS'pollin'
p2296
(dp2297
S'pollin/810-024'
p2298
NssS'napa'
p2299
(dp2300
S'napa/DAV-309'
p2301
NssS'supermax'
p2302
(dp2303
S'supermax/CABLE_BOX'
p2304
NssS'vlsystem'
p2305
(dp2306
S'vlsystem/lircd.conf.mplay'
p2307
NssS'hinen_electronics'
p2308
(dp2309
S'hinen_electronics/HSW0301'
p2310
NssS'harman_kardon'
p2311
(dp2312
S'harman_kardon/AVR10'
p2313
NsS'harman_kardon/RIA101'
p2314
NsS'harman_kardon/HD740'
p2315
NsS'harman_kardon/AVR25'
p2316
NsS'harman_kardon/DVD_1_RC'
p2317
NsS'harman_kardon/AVR240'
p2318
NsS'harman_kardon/HK3390'
p2319
NsS'harman_kardon/HK680'
p2320
NsS'harman_kardon/DVD_22'
p2321
NsS'harman_kardon/AVR320'
p2322
NsS'harman_kardon/HD730'
p2323
NsS'harman_kardon/AVR210.irman'
p2324
NssS'mcl'
p2325
(dp2326
S'mcl/Remote_Controller'
p2327
NssS'kaon'
p2328
(dp2329
S'kaon/KSC-i260MCO'
p2330
NsS'kaon/KTF-I2001CO'
p2331
NsS'kaon/KTF-100CO'
p2332
NssS'onida'
p2333
(dp2334
S'onida/TVE_21'
p2335
NsS'onida/DFX_7100'
p2336
NssS'nikon'
p2337
(dp2338
S'nikon/ML-L3'
p2339
NssS'leadtek'
p2340
(dp2341
S'leadtek/Y0400046'
p2342
NsS'leadtek/Y04G0004'
p2343
NsS'leadtek/lircd.conf.PVR2000'
p2344
NsS'leadtek/lircd.conf.RM-0010'
p2345
NsS'leadtek/Y0400052'
p2346
NsS'leadtek/lircd.conf.RM-0007'
p2347
NsS'leadtek/Y04G0033'
p2348
NssS'pcmak'
p2349
(dp2350
S'pcmak/lircd.conf.pcmak'
p2351
NssS'palladium'
p2352
(dp2353
S'palladium/RC-BM.irman'
p2354
NssS'triax'
p2355
(dp2356
S'triax/DVB_40S'
p2357
NssS'hughes'
p2358
(dp2359
S'hughes/HIRD-B2_GAEBO'
p2360
NsS'hughes/HIRD-B2'
p2361
NsS'hughes/HRMC-8'
p2362
NssS'canalsat'
p2363
(dp2364
S'canalsat/CanalSatHD'
p2365
NsS'canalsat/CanalSat'
p2366
NssS'fujtech'
p2367
(dp2368
S'fujtech/DVB-T'
p2369
NssS'bluesky'
p2370
(dp2371
S'bluesky/DV900'
p2372
NssS'zalman'
p2373
(dp2374
S'zalman/HD160XT'
p2375
NssS'kodak'
p2376
(dp2377
S'kodak/RC-201.irman'
p2378
NssS'aim'
p2379
(dp2380
S'aim/RC126'
p2381
NsS'aim/Radio'
p2382
NssS'pace'
p2383
(dp2384
S'pace/DTA100'
p2385
NsS'pace/RC-24'
p2386
NsS'pace/RC-30'
p2387
NsS'pace/DI4010I'
p2388
NsS'pace/DI4001N'
p2389
NsS'pace/Twin_Digital_TV_Recorder'
p2390
NsS'pace/MKT900A-A00'
p2391
NsS'pace/DS620'
p2392
NsS'pace/PRC100'
p2393
NsS'pace/DC621KU'
p2394
NsS'pace/MSS1000_IRD'
p2395
NsS'pace/DC420N'
p2396
NsS'pace/PACEMSS.raw'
p2397
NsS'pace/DS830NS'
p2398
NsS'pace/PSR800'
p2399
NsS'pace/MSS300'
p2400
NsS'pace/XSAT_CDTV410'
p2401
NsS'pace/DIGIBOX'
p2402
NsS'pace/DS420'
p2403
NsS'pace/PSR900'
p2404
NsS'pace/RC-17'
p2405
NsS'pace/DC551P'
p2406
NsS'pace/TDS460NNZ'
p2407
NsS'pace/RC-10'
p2408
NssS'syabas'
p2409
(dp2410
S'syabas/A-100'
p2411
NssS'daeumling'
p2412
(dp2413
S'daeumling/SR200'
p2414
NssS'fortec'
p2415
(dp2416
S'fortec/Lifetime'
p2417
NsS'fortec/Mercury2'
p2418
NssS'trice'
p2419
(dp2420
S'trice/TR-302'
p2421
NssS'quadral'
p2422
(dp2423
S'quadral/RC-804'
p2424
NssS'zenith'
p2425
(dp2426
S'zenith/MBR-3447'
p2427
NsS'zenith/C32V37'
p2428
NsS'zenith/ZN5015'
p2429
NsS'zenith/AKB36157102'
p2430
NsS'zenith/VCR'
p2431
NsS'zenith/TV'
p2432
NsS'zenith/VCR1'
p2433
NsS'zenith/ZN110'
p2434
NssS'hama'
p2435
(dp2436
S'hama/PhotoPlayer'
p2437
NsS'hama/Internet_Radio'
p2438
NssS'canon'
p2439
(dp2440
S'canon/WL-V1'
p2441
NsS'canon/WL-60'
p2442
NsS'canon/WL-D71'
p2443
NsS'canon/WL-DC100'
p2444
NsS'canon/WL-100'
p2445
NsS'canon/WL-D77'
p2446
NsS'canon/RC-1_RC-5'
p2447
NsS'canon/WL-D80'
p2448
NssS'rio'
p2449
(dp2450
S'rio/Rio_Audio'
p2451
NssS'holtek'
p2452
(dp2453
S'holtek/lircd.conf'
p2454
NssS'tevii'
p2455
(dp2456
S'tevii/S650_DVB-S2_USB'
p2457
NssS'solidtek'
p2458
(dp2459
S'solidtek/ACK-581'
p2460
NssS'panasonic'
p2461
(dp2462
S'panasonic/EUR571451'
p2463
NsS'panasonic/VEQ0910'
p2464
NsS'panasonic/VSQS0905'
p2465
NsS'panasonic/TX29AD10C'
p2466
NsS'panasonic/VEQ1562'
p2467
NsS'panasonic/N2QAJB000051.irman'
p2468
NsS'panasonic/EUR50350'
p2469
NsS'panasonic/Omnivision'
p2470
NsS'panasonic/N2QAKB000043'
p2471
NsS'panasonic/VEQ2249'
p2472
NsS'panasonic/N2QAKB000044'
p2473
NsS'panasonic/VEQ1100'
p2474
NsS'panasonic/VSQS1451'
p2475
NsS'panasonic/EUR64595'
p2476
NsS'panasonic/EUR642181'
p2477
NsS'panasonic/EUR511300'
p2478
NsS'panasonic/VEQ2380'
p2479
NsS'panasonic/VSQ_0305'
p2480
NsS'panasonic/EUR7631010'
p2481
NsS'panasonic/N2QAGB000002'
p2482
NsS'panasonic/TC-21E1R'
p2483
NsS'panasonic/N2QAGB000001'
p2484
NsS'panasonic/EUR642162'
p2485
NsS'panasonic/VEQ1944.irman'
p2486
NsS'panasonic/N2QAYB000064'
p2487
NsS'panasonic/VEQ1873'
p2488
NsS'panasonic/N2QAJB000051'
p2489
NsS'panasonic/NV-HS830'
p2490
NsS'panasonic/VEQ1656'
p2491
NsS'panasonic/LSSQ0225'
p2492
NsS'panasonic/VEQ2398'
p2493
NsS'panasonic/RAK-RX309W'
p2494
NsS'panasonic/EUR642195'
p2495
NsS'panasonic/RC4346_01B'
p2496
NsS'panasonic/VEQ0573'
p2497
NsS'panasonic/N2QAGB000015'
p2498
NsS'panasonic/N2QAGB000016'
p2499
NsS'panasonic/VEQ1883'
p2500
NsS'panasonic/N2QAKB000001'
p2501
NsS'panasonic/VCR'
p2502
NsS'panasonic/VSQ0407'
p2503
NsS'panasonic/VEQ1309'
p2504
NsS'panasonic/EUR644550'
p2505
NsS'panasonic/RAK-RX318W'
p2506
NsS'panasonic/EUR643800'
p2507
NsS'panasonic/EUR643804'
p2508
NsS'panasonic/N2QADC000006'
p2509
NsS'panasonic/MINI_STEREO'
p2510
NsS'panasonic/VEQ1962'
p2511
NsS'panasonic/AMP'
p2512
NsS'panasonic/VEQ1956'
p2513
NsS'panasonic/EUR648251'
p2514
NsS'panasonic/TX-25MK1'
p2515
NsS'panasonic/EUR7623X70'
p2516
NsS'panasonic/N2QAYB000329'
p2517
NsS'panasonic/NV-SD225'
p2518
NsS'panasonic/N2QAHB000022'
p2519
NsS'panasonic/N2QAHB0048'
p2520
NsS'panasonic/DSS'
p2521
NsS'panasonic/VEQ1253'
p2522
NsS'panasonic/EUR511211.irman'
p2523
S'panasonic/EUR511211.jpg'
p2524
sS'panasonic/VEQ0422'
p2525
NsS'panasonic/TU-TC20'
p2526
NsS'panasonic/N2QAYB000239'
p2527
NsS'panasonic/EUR511515A'
p2528
NsS'panasonic/EUR571465'
p2529
NsS'panasonic/EUR644853'
p2530
NsS'panasonic/EUR643824'
p2531
NsS'panasonic/TX-28CK2F'
p2532
NsS'panasonic/VEQ0552'
p2533
NsS'panasonic/EUR642182'
p2534
NsS'panasonic/TNQ8E0445'
p2535
NsS'panasonic/EUR7502XJO.irman'
p2536
NsS'panasonic/VEQ2051'
p2537
NsS'panasonic/EUR7720KL0'
p2538
NsS'panasonic/EUR7711110'
p2539
NsS'panasonic/VEQ1448'
p2540
NsS'panasonic/EUR511224'
p2541
NsS'panasonic/SA-AK25'
p2542
NsS'panasonic/EUR7702KF0'
p2543
NsS'panasonic/VEQ0520'
p2544
NsS'panasonic/EUR643826'
p2545
NsS'panasonic/EUR643820'
p2546
NsS'panasonic/VEQ1475.irman'
p2547
NsS'panasonic/TNQ2637'
p2548
NsS'panasonic/RC331401'
p2549
NsS'panasonic/EUR571739'
p2550
NsS'panasonic/RX-ED70'
p2551
NsS'panasonic/VSQS1559'
p2552
NsS'panasonic/TNQ8E0437'
p2553
NsS'panasonic/NV-FJ610'
p2554
NsS'panasonic/VSQS1480'
p2555
NsS'panasonic/EUR511211'
p2556
NsS'panasonic/QuintrixF'
p2557
NsS'panasonic/CarAudio_CARC60EX'
p2558
NsS'panasonic/RAK-RX928WK'
p2559
NsS'panasonic/VEQ0744'
p2560
NsS'panasonic/NV-F65_HQ'
p2561
NsS'panasonic/VEQ1697'
p2562
NsS'panasonic/EUR64485'
p2563
NsS'panasonic/TV'
p2564
NsS'panasonic/N2QAEC000012'
p2565
NsS'panasonic/EUR57510'
p2566
NsS'panasonic/LSSQ0226'
p2567
NsS'panasonic/VEQ0534'
p2568
NsS'panasonic/EUR644340'
p2569
NsS'panasonic/EUR644344'
p2570
NsS'panasonic/N2QAYB000010'
p2571
NsS'panasonic/EUR51169.irman'
p2572
NsS'panasonic/DVD'
p2573
NsS'panasonic/VEQ2138'
p2574
NsS'panasonic/Viera-42PZ700U'
p2575
NsS'panasonic/EUR7724KF0'
p2576
NsS'panasonic/EUR571110'
p2577
NsS'panasonic/TNQ8E0461-2'
p2578
NsS'panasonic/VEQ1141.irman'
p2579
NsS'panasonic/EUR648100'
p2580
NsS'panasonic/EUR7914Z20'
p2581
NsS'panasonic/EUR571756'
p2582
NsS'panasonic/RAK-RX314W'
p2583
NsS'panasonic/EUR7628030AR'
p2584
NsS'panasonic/RAK-SC957WK'
p2585
NsS'panasonic/VSQS0531'
p2586
NsS'panasonic/EUR51920'
p2587
NsS'panasonic/EUR644660'
p2588
NsS'panasonic/EUR7617010'
p2589
NsS'panasonic/VEQ1993'
p2590
NsS'panasonic/VEQ2142'
p2591
NsS'panasonic/EUR7621010'
p2592
NsS'panasonic/EUR7613Z6A'
p2593
NsS'panasonic/EUR571100'
p2594
NsS'panasonic/VEQ0615'
p2595
NsS'panasonic/VEQ2224.irman'
p2596
NsS'panasonic/EUR7662Y80'
p2597
NsS'panasonic/EUR7635010'
p2598
NsS'panasonic/EUR7702KE0'
p2599
NsS'panasonic/NV-SD44'
p2600
NsS'panasonic/EUR7702110'
p2601
NsS'panasonic/VEQ0709'
p2602
NssS't-online'
p2603
(dp2604
S't-online/S100'
p2605
NssS'generic'
p2606
(dp2607
S'generic/SONY20.conf'
p2608
NsS'generic/SONY12.conf'
p2609
NsS'generic/SANYO.conf'
p2610
NsS'generic/RECS80.conf'
p2611
NsS'generic/RC-6.conf'
p2612
NsS'generic/NEC-pulse.conf'
p2613
NsS'generic/NEC.conf'
p2614
NsS'generic/DENON.conf'
p2615
NsS'generic/MOTOROLA.conf'
p2616
NsS'generic/RC-5.conf'
p2617
NsS'generic/NEC-short-pulse.conf'
p2618
NsS'generic/RCMM-32.conf'
p2619
NsS'generic/XMP'
p2620
NssS'polaroid'
p2621
(dp2622
S'polaroid/DVP-1000'
p2623
NssS'blaupunkt'
p2624
(dp2625
S'blaupunkt/RC10'
p2626
NssS'konka'
p2627
(dp2628
S'konka/KK-Y199'
p2629
NsS'konka/KK-Y250A'
p2630
NssS'samy'
p2631
(dp2632
S'samy/SDX1100'
p2633
NssS'irlink'
p2634
(dp2635
S'irlink/lircd.conf.irlink.vs'
p2636
NssS'itv_media'
p2637
(dp2638
S'itv_media/iTV_Control'
p2639
NssS'shuttle'
p2640
(dp2641
S'shuttle/RC11B'
p2642
NsS'shuttle/PN31'
p2643
NssS'proscan'
p2644
(dp2645
S'proscan/PSVR72'
p2646
NssS'hivion'
p2647
(dp2648
S'hivion/SAT'
p2649
NssS'cosmel'
p2650
(dp2651
S'cosmel/TV_3790'
p2652
NssS'snazio'
p2653
(dp2654
S'snazio/Net_DVD_Cinema_HD'
p2655
NssS'tcuag'
p2656
(dp2657
S'tcuag/TVOON'
p2658
NssS'thinkgeek'
p2659
(dp2660
S'thinkgeek/LIGHTBULB'
p2661
NssS'yuan'
p2662
(dp2663
S'yuan/SmartVDO'
p2664
NssS'skymaster'
p2665
(dp2666
S'skymaster/DCI_9410'
p2667
NsS'skymaster/2424'
p2668
NsS'skymaster/DXL9300'
p2669
NsS'skymaster/2421'
p2670
NsS'skymaster/XLS_99'
p2671
NsS'skymaster/2417_2419'
p2672
NsS'skymaster/XL10'
p2673
NsS'skymaster/XL15'
p2674
NsS'skymaster/2416'
p2675
NssS'genus'
p2676
(dp2677
S'genus/DU1'
p2678
NssS'linksys'
p2679
(dp2680
S'linksys/WMA11B-R'
p2681
NssS'viewmaster'
p2682
(dp2683
S'viewmaster/RC-03'
p2684
NssS'thermaltake'
p2685
(dp2686
S'thermaltake/MediaLAB'
p2687
NssS'orava/ovara'
p2688
(dp2689
S'orava/ovara/RC-5500'
p2690
NssS'm3_electronic'
p2691
(dp2692
S'm3_electronic/Muvid_DVD-209'
p2693
NssS'cce'
p2694
(dp2695
S'cce/HPS-2290'
p2696
NsS'cce/RC-28'
p2697
NsS'cce/RC-27'
p2698
NsS'cce/88-X'
p2699
NssS'jbl'
p2700
(dp2701
S'jbl/Harmony'
p2702
NssS'infocus'
p2703
(dp2704
S'infocus/ScreenPlay_5000'
p2705
NssS'magnavox'
p2706
(dp2707
S'magnavox/NA387'
p2708
NsS'magnavox/VR9360'
p2709
NsS'magnavox/MDV450'
p2710
NsS'magnavox/TV_XK4353_CH02'
p2711
NsS'magnavox/PM435S'
p2712
NsS'magnavox/MFX-450'
p2713
NssS'humax'
p2714
(dp2715
S'humax/RC-536P'
p2716
NsS'humax/RS-101P'
p2717
NsS'humax/5400IRCI'
p2718
NsS'humax/RT-511V'
p2719
NsS'humax/VACI-5300'
p2720
NsS'humax/RS-521'
p2721
NsS'humax/F1-CI'
p2722
NssS'kiss'
p2723
(dp2724
S'kiss/DP-1500s'
p2725
NssS'elmak'
p2726
(dp2727
S'elmak/MT-1041'
p2728
NssS'pixelview'
p2729
(dp2730
S'pixelview/lircd.conf.playtv_pro'
p2731
NsS'pixelview/lircd.conf.playtv'
p2732
NsS'pixelview/lircd.conf.remotemaster'
p2733
NsS'pixelview/lircd.conf.playtv_bt878'
p2734
NssS'tekram'
p2735
(dp2736
S'tekram/lircd.conf.m230'
p2737
NssS'mceusb'
p2738
(dp2739
S'mceusb/lircd.conf.mceusb'
p2740
NssS'general_instrument'
p2741
(dp2742
S'general_instrument/550'
p2743
NsS'general_instrument/XRC-200'
p2744
NssS'hercules'
p2745
(dp2746
S'hercules/lircd.conf.smarttv_stereo'
p2747
NssS'in_focus'
p2748
(dp2749
S'in_focus/IRC_TC'
p2750
NssS'ads'
p2751
(dp2752
S'ads/PTV-334.irman'
p2753
NsS'ads/PTV-350'
p2754
NsS'ads/Instant_TV_DVB-T'
p2755
NssS'elitron'
p2756
(dp2757
S'elitron/UTK11'
p2758
NssS'yamaha'
p2759
(dp2760
S'yamaha/AX-960'
p2761
NsS'yamaha/RX-395-RDS'
p2762
NsS'yamaha/VK38010'
p2763
NsS'yamaha/VP79430'
p2764
NsS'yamaha/VK34080'
p2765
NsS'yamaha/VR50590-CX1'
p2766
NsS'yamaha/V215230'
p2767
NsS'yamaha/VP60840'
p2768
NsS'yamaha/V499920'
p2769
NsS'yamaha/VP59250'
p2770
NsS'yamaha/RAV14'
p2771
NsS'yamaha/RAV16'
p2772
NsS'yamaha/CDX-493'
p2773
NsS'yamaha/VI77760'
p2774
NsS'yamaha/DSP-A970'
p2775
NsS'yamaha/VR09390'
p2776
NsS'yamaha/RC-X750'
p2777
NsS'yamaha/VR50590'
p2778
NsS'yamaha/RAV294'
p2779
NsS'yamaha/VJ59810'
p2780
NsS'yamaha/RS-CX600'
p2781
NsS'yamaha/RS-CDX910'
p2782
NsS'yamaha/VU07410'
p2783
NsS'yamaha/AVPhile_715_RC'
p2784
NsS'yamaha/VT97430'
p2785
NsS'yamaha/RS-KX1'
p2786
NsS'yamaha/VP37310'
p2787
NsS'yamaha/VY71850'
p2788
NsS'yamaha/VP37320'
p2789
NsS'yamaha/VV27520'
p2790
NsS'yamaha/VQ95010.2'
p2791
NsS'yamaha/RAV302'
p2792
NsS'yamaha/RAV300'
p2793
NsS'yamaha/RX-CX1000.a'
p2794
NsS'yamaha/VQ95010'
p2795
NsS'yamaha/RC-X660'
p2796
NsS'yamaha/VP84950'
p2797
NsS'yamaha/RX-CX800'
p2798
NsS'yamaha/RAV283'
p2799
NsS'yamaha/RCX2'
p2800
NsS'yamaha/RX-V995'
p2801
NsS'yamaha/RAV285'
p2802
NsS'yamaha/VU07420'
p2803
NsS'yamaha/VV48620'
p2804
NsS'yamaha/TV'
p2805
NsS'yamaha/VS54120'
p2806
NsS'yamaha/VR81350'
p2807
NsS'yamaha/RAX9'
p2808
NsS'yamaha/VS71360'
p2809
NsS'yamaha/VP59040'
p2810
NsS'yamaha/VU71330'
p2811
NsS'yamaha/RAV190'
p2812
NsS'yamaha/RAV215'
p2813
NsS'yamaha/RAX6'
p2814
NsS'yamaha/RAX7'
p2815
NsS'yamaha/CDX-570'
p2816
NsS'yamaha/VM70300'
p2817
NsS'yamaha/VT06460'
p2818
NsS'yamaha/RX-450'
p2819
NsS'yamaha/RX-V495'
p2820
NsS'yamaha/RS-CD5'
p2821
NsS'yamaha/VM70290'
p2822
NsS'yamaha/R-V1105'
p2823
NsS'yamaha/RS-CX1000'
p2824
NsS'yamaha/TX-1000'
p2825
NsS'yamaha/VI47320'
p2826
NsS'yamaha/DSP-A1000'
p2827
NsS'yamaha/RAV-12'
p2828
NsS'yamaha/RS-K3'
p2829
NsS'yamaha/RAV207'
p2830
NsS'yamaha/RX-V850'
p2831
NsS'yamaha/RCX'
p2832
NsS'yamaha/VJI5420'
p2833
NsS'yamaha/RAV243'
p2834
NsS'yamaha/VQ08640'
p2835
NsS'yamaha/RS-KR4'
p2836
NsS'yamaha/RAV364'
p2837
NsS'yamaha/VU50620'
p2838
NssS'sky'
p2839
(dp2840
S'sky/SkyHD'
p2841
NsS'sky/NAVIGATOR'
p2842
NsS'sky/SKY+_DVB-S'
p2843
NsS'sky/Navigator'
p2844
NsS'sky/Rev4'
p2845
NsS'sky/Sky_Rev_6'
p2846
NssS'nikko'
p2847
(dp2848
S'nikko/NK-1000'
p2849
NssS'bench'
p2850
(dp2851
S'bench/KH2800'
p2852
NssS'westinghouse'
p2853
(dp2854
S'westinghouse/LVM-47W1'
p2855
NsS'westinghouse/RMT-05'
p2856
NssS'traxis'
p2857
(dp2858
S'traxis/3500'
p2859
NssS'adb'
p2860
(dp2861
S'adb/I-CAN_3000'
p2862
NssS'schwaiger'
p2863
(dp2864
S'schwaiger/DSR_6020'
p2865
NssS'citizen'
p2866
(dp2867
S'citizen/JX-2022C'
p2868
NssS'accessmedia'
p2869
(dp2870
S'accessmedia/ThinBox'
p2871
NssS'ultrawave'
p2872
(dp2873
S'ultrawave/3500PFTA'
p2874
NssS'mitaki'
p2875
(dp2876
S'mitaki/43'
p2877
NssS'smoovietv'
p2878
(dp2879
S'smoovietv/SMOOVIETV.irman'
p2880
S'smoovietv/SMOOVIETV.jpg'
p2881
ssS'mivar'
p2882
(dp2883
S'mivar/x1'
p2884
NssS'imex'
p2885
(dp2886
S'imex/IM-1313'
p2887
NsS'imex/IM-1010'
p2888
NsS'imex/IM-1313_027'
p2889
NssS'sigmatek'
p2890
(dp2891
S'sigmatek/X100'
p2892
NsS'sigmatek/XMB-510-PRO'
p2893
NssS'siemens'
p2894
(dp2895
S'siemens/FB33ATS'
p2896
NsS'siemens/FB31top'
p2897
NsS'siemens/FB400'
p2898
NsS'siemens/FM_638'
p2899
NsS'siemens/FB405'
p2900
NssS'medion'
p2901
(dp2902
S'medion/MD_81035'
p2903
NsS'medion/JX-2006B'
p2904
NsS'medion/MD_41666'
p2905
NsS'medion/MD-5410'
p2906
NsS'medion/MD_81880'
p2907
NsS'medion/MD_41169'
p2908
NsS'medion/MD_9025'
p2909
NsS'medion/MD_4688'
p2910
NsS'medion/2020'
p2911
NsS'medion/RC2000'
p2912
NsS'medion/MD_4689'
p2913
NsS'medion/MD_3830'
p2914
NssS'falcon'
p2915
(dp2916
S'falcon/VT-1000'
p2917
NssS'scientific_atlanta'
p2918
(dp2919
S'scientific_atlanta/RC-U49C+'
p2920
NsS'scientific_atlanta/Explorer_2000'
p2921
NsS'scientific_atlanta/E940'
p2922
NsS'scientific_atlanta/RM9834'
p2923
NsS'scientific_atlanta/3250'
p2924
NsS'scientific_atlanta/AT8400'
p2925
NsS'scientific_atlanta/1840'
p2926
NsS'scientific_atlanta/RNG-150'
p2927
NsS'scientific_atlanta/Explorer_8300_HD'
p2928
NssS'daewoo'
p2929
(dp2930
S'daewoo/14Q3_TV'
p2931
NsS'daewoo/VP-200_VCR'
p2932
NsS'daewoo/DV-K281K'
p2933
NsS'daewoo/97P1R2ZDA0'
p2934
NsS'daewoo/R-43A08'
p2935
NsS'daewoo/R-40A06'
p2936
NsS'daewoo/R-40A10'
p2937
NsS'daewoo/R-40A15'
p2938
NsS'daewoo/IR7132-A'
p2939
NsS'daewoo/DV-800'
p2940
NsS'daewoo/97P1RA3AB0'
p2941
NsS'daewoo/R-22'
p2942
NsS'daewoo/97P04701'
p2943
NsS'daewoo/DS608P'
p2944
NsS'daewoo/VQ25I'
p2945
NsS'daewoo/DVDS150'
p2946
NsS'daewoo/R-28B03'
p2947
NsS'daewoo/DV-F24D'
p2948
NssS'motorola'
p2949
(dp2950
S'motorola/IRC442'
p2951
NsS'motorola/VIP_1200'
p2952
NsS'motorola/DigitalCable'
p2953
NsS'motorola/RC1445302-00B-REV2'
p2954
NsS'motorola/QIP2500'
p2955
NsS'motorola/DCT2524'
p2956
NsS'motorola/DCT2244'
p2957
NsS'motorola/DCH3200'
p2958
NsS'motorola/SRC-200A'
p2959
NsS'motorola/Millenium_4_Universal'
p2960
NsS'motorola/DCT6200.irman'
p2961
NsS'motorola/DCT2000'
p2962
NsS'motorola/IRC451'
p2963
NsS'motorola/DVi2030'
p2964
NsS'motorola/DCH3416'
p2965
NsS'motorola/DTH320-4'
p2966
NsS'motorola/DRC800'
p2967
NsS'motorola/DTA100'
p2968
NsS'motorola/VIP_1510'
p2969
NsS'motorola/DTH355'
p2970
NsS'motorola/DCT2224'
p2971
NsS'motorola/920'
p2972
NsS'motorola/QIP6200-2'
p2973
NssS'fagor'
p2974
(dp2975
S'fagor/TEDI100'
p2976
NssS'Kenmore'
p2977
(dp2978
S'Kenmore/Kenmore_253_79081'
p2979
NssS'accesshd'
p2980
(dp2981
S'accesshd/DTA1080U'
p2982
NssS'sagem'
p2983
(dp2984
S'sagem/DVB-T-Receiver'
p2985
NsS'sagem/HD103-C'
p2986
NsS'sagem/CABLE_DECODER'
p2987
NssS'netgem'
p2988
(dp2989
S'netgem/iPlayer'
p2990
NssS'twinhan'
p2991
(dp2992
S'twinhan/MagicBox'
p2993
NsS'twinhan/DTV'
p2994
NsS'twinhan/AD-SP200'
p2995
NssS'conrad'
p2996
(dp2997
S'conrad/Promo-8'
p2998
NsS'conrad/RSLT2'
p2999
NsS'conrad/MF_150'
p3000
NsS'conrad/Promo2_006'
p3001
NssS'cisco'
p3002
(dp3003
S'cisco/RNG-150'
p3004
NssS'lutron'
p3005
(dp3006
S'lutron/MaestroIR'
p3007
NsS'lutron/GRX-IT'
p3008
NssS'silitek'
p3009
(dp3010
S'silitek/lircd.conf.silitek'
p3011
NssS'proplay'
p3012
(dp3013
S'proplay/PS2'
p3014
NssS'zolid'
p3015
(dp3016
S'zolid/ZOL100'
p3017
NssS'aureal'
p3018
(dp3019
S'aureal/lircd.conf.atwf83'
p3020
NssS'bork'
p3021
(dp3022
S'bork/DV_VKM_1643_SI'
p3023
NssS'images'
p3024
NsS'monoprice'
p3025
(dp3026
S'monoprice/monoprice_hdx(c)-501e'
p3027
NssS'coolsat'
p3028
(dp3029
S'coolsat/Pro_4000'
p3030
NsS'coolsat/Pro_5000'
p3031
NssS"morgan's_daytona"
p3032
(dp3033
S"morgan's_daytona/T15"
p3034
NsS"morgan's_daytona/Tornado"
p3035
NssS'curtis_electronics'
p3036
(dp3037
S'curtis_electronics/TV'
p3038
NssS'gvc'
p3039
(dp3040
S'gvc/RM-RK50'
p3041
NssS'provideo'
p3042
(dp3043
S'provideo/PV951'
p3044
NsS'provideo/lircd.conf.pv951'
p3045
NssS'fox'
p3046
(dp3047
S'fox/RC_5-Bp2'
p3048
NssS'ice'
p3049
(dp3050
S'ice/TV'
p3051
NssS'creative'
p3052
(dp3053
S'creative/lircd.conf.infracd'
p3054
NsS'creative/lircd.conf.livedrive'
p3055
NsS'creative/DDTS-100'
p3056
NsS'creative/RM-1000'
p3057
NsS'creative/CD'
p3058
NsS'creative/RM-1800'
p3059
NsS'creative/RM-900'
p3060
NsS'creative/CD.old'
p3061
NsS'creative/RM-900.irman'
p3062
NsS'creative/lircd.conf.breakoutbox'
p3063
NsS'creative/lircd.conf.creative'
p3064
NsS'creative/lircd.conf.alsa_usb'
p3065
NsS'creative/JUKEBOX_3'
p3066
NsS'creative/RM-850'
p3067
NsS'creative/RM-1500'
p3068
NssS'pioneer'
p3069
(dp3070
S'pioneer/CU-XR015'
p3071
NsS'pioneer/CU-XR014'
p3072
NsS'pioneer/CU-XC004.irman'
p3073
NsS'pioneer/VXX2801'
p3074
NsS'pioneer/AXD-7381'
p3075
NsS'pioneer/BR-V3_CATV'
p3076
NsS'pioneer/PD-M650'
p3077
NsS'pioneer/AXD-1531'
p3078
NsS'pioneer/CU-XR019'
p3079
NsS'pioneer/VSX9300'
p3080
NsS'pioneer/PD-F1007'
p3081
NsS'pioneer/CU-DV042'
p3082
NsS'pioneer/CU-SX109'
p3083
NsS'pioneer/CU-SX039'
p3084
NsS'pioneer/CU-PD038'
p3085
NsS'pioneer/CU-SX070'
p3086
NsS'pioneer/CU-CLD106'
p3087
NsS'pioneer/CU-VSX159'
p3088
NsS'pioneer/CD'
p3089
NsS'pioneer/CU-PD046'
p3090
NsS'pioneer/CU-PD089'
p3091
NsS'pioneer/DBR-S210F'
p3092
NsS'pioneer/DEH-D8850'
p3093
NsS'pioneer/CU-XR039'
p3094
NsS'pioneer/SR-90'
p3095
NsS'pioneer/CU-XR050'
p3096
NsS'pioneer/XV-DV303'
p3097
NsS'pioneer/CU-A011'
p3098
NsS'pioneer/CU-PD085'
p3099
NsS'pioneer/CU-A019'
p3100
NsS'pioneer/VXX2910'
p3101
NsS'pioneer/CU-A009'
p3102
NsS'pioneer/CU-PD045'
p3103
NsS'pioneer/RU-V103'
p3104
NsS'pioneer/CU-SX022'
p3105
NsS'pioneer/CU-CLD067'
p3106
NsS'pioneer/UR4-P360'
p3107
NsS'pioneer/CU-PD069'
p3108
NsS'pioneer/CU-CLD115'
p3109
NsS'pioneer/CU-XR032'
p3110
NsS'pioneer/CU-PD008'
p3111
NsS'pioneer/AXD-7305'
p3112
NsS'pioneer/CU-PD052'
p3113
NsS'pioneer/AXD-7306'
p3114
NsS'pioneer/CU-SX092'
p3115
NsS'pioneer/CU-SX091'
p3116
NsS'pioneer/CU-XC004'
p3117
NsS'pioneer/VXX2702'
p3118
NsS'pioneer/XXD3067'
p3119
NsS'pioneer/CU-PD096'
p3120
NsS'pioneer/CU-VSX107'
p3121
NsS'pioneer/PD-202'
p3122
NsS'pioneer/CU-A002'
p3123
NsS'pioneer/CU-A001'
p3124
NssS'sejin_electron'
p3125
(dp3126
S'sejin_electron/SWP-D3956W-KR1'
p3127
NssS'plu2'
p3128
(dp3129
S'plu2/DVX-345pro'
p3130
NssS'slim_art'
p3131
(dp3132
S'slim_art/SA-100'
p3133
NssS'bellagio'
p3134
(dp3135
S'bellagio/P807'
p3136
NssS'lexicon'
p3137
(dp3138
S'lexicon/750-10978'
p3139
NssS'epson'
p3140
(dp3141
S'epson/12807990'
p3142
NsS'epson/ELPST12'
p3143
NssS'amstrad'
p3144
(dp3145
S'amstrad/SRX2101'
p3146
NsS'amstrad/SRD650'
p3147
NsS'amstrad/SRX340'
p3148
NsS'amstrad/DX3070'
p3149
NssS'beko'
p3150
(dp3151
S'beko/NR_KK14T61_TX'
p3152
NsS'beko/14B3M04-TXB'
p3153
NssS'l&s_electronic'
p3154
(dp3155
S'l&s_electronic/HS-910.irman'
p3156
NssS'leadership'
p3157
(dp3158
S'leadership/GOTEC_3801'
p3159
NssS'snapstream'
p3160
(dp3161
S'snapstream/Firefly-Mini'
p3162
NssS'captiveworks'
p3163
(dp3164
S'captiveworks/CW800s'
p3165
NssS'oritron'
p3166
(dp3167
S'oritron/DVD'
p3168
NssS'starsat'
p3169
(dp3170
S'starsat/120'
p3171
NssS'ruwido'
p3172
(dp3173
S'ruwido/Easytip_z1'
p3174
NsS'ruwido/Easytip_2'
p3175
NsS'ruwido/Cyberclick'
p3176
NssS'aspire_digital'
p3177
(dp3178
S'aspire_digital/RW_DVD+ReWritable'
p3179
NssS'rc-5'
p3180
(dp3181
S'rc-5/RC-5-a'
p3182
NsS'rc-5/RC-5'
p3183
NsS'rc-5/RC-5-extented'
p3184
NssS'sumvision'
p3185
(dp3186
S'sumvision/DVD'
p3187
NssS'fujitsu_siemens'
p3188
(dp3189
S'fujitsu_siemens/RC812'
p3190
NsS'fujitsu_siemens/RC811'
p3191
NsS'fujitsu_siemens/RC1124121'
p3192
NsS'fujitsu_siemens/KWR3020'
p3193
NssS'phonotrend'
p3194
(dp3195
S'phonotrend/Prestige_DVD2788'
p3196
NssS'vizio'
p3197
(dp3198
S'vizio/LCD_TV'
p3199
NsS'vizio/VUR8'
p3200
NsS'vizio/VX37L'
p3201
NssS'mbo'
p3202
(dp3203
S'mbo/10-in-1'
p3204
NssS'italtel'
p3205
(dp3206
S'italtel/SAT'
p3207
NssS'nse'
p3208
(dp3209
S'nse/URC20-C8'
p3210
NsS'nse/URC22B-7'
p3211
NsS'nse/URC22B-12'
p3212
NssS'multitec'
p3213
(dp3214
S'multitec/1030'
p3215
NssS'xsat'
p3216
(dp3217
S'xsat/XSAT_CDTV410'
p3218
NssS'graetz'
p3219
(dp3220
S'graetz/Graetz'
p3221
NssS'packard_bell'
p3222
(dp3223
S'packard_bell/packard_bell'
p3224
NsS'packard_bell/lircd.conf.packard_bell'
p3225
NssS'barco'
p3226
(dp3227
S'barco/RC5'
p3228
NssS'parex'
p3229
(dp3230
S'parex/IR9703'
p3231
NssS'rowa'
p3232
(dp3233
S'rowa/RDVD104'
p3234
NssS'entone'
p3235
(dp3236
S'entone/URC-4021ABA1-006-R'
p3237
NsS'entone/URC-4021ABA1-006-R.conf'
p3238
S'entone/URC-4021ABA1-006-R.jpg'
p3239
ssS'robotron'
p3240
(dp3241
S'robotron/RCS-9085'
p3242
NssS'harting_helling'
p3243
(dp3244
S'harting_helling/H+H_8in1'
p3245
NssS'devinput'
p3246
(dp3247
S'devinput/lircd.conf.devinput'
p3248
NssS'nubert'
p3249
(dp3250
S'nubert/AW-800'
p3251
NssS'rca'
p3252
(dp3253
S'rca/RCR311TCM1'
p3254
NsS'rca/F20507CP'
p3255
NsS'rca/33379-1'
p3256
NsS'rca/RS2300'
p3257
NsS'rca/RCZ_111_SJ1G'
p3258
NsS'rca/RCA312W'
p3259
NsS'rca/Dish_Network'
p3260
NsS'rca/D770'
p3261
NsS'rca/RCR815'
p3262
NsS'rca/RCR_110D_A1.irman'
p3263
NsS'rca/RCR160SBM1'
p3264
NsS'rca/R130A1'
p3265
NsS'rca/DSS.old'
p3266
NsS'rca/RCU600RS'
p3267
NsS'rca/RCU600M'
p3268
NsS'rca/DB200'
p3269
NsS'rca/DSS_RG_RH'
p3270
NsS'rca/DTA800b'
p3271
NsS'rca/DTA800B1'
p3272
NsS'rca/CRK76CA2'
p3273
NsS'rca/VR637HF'
p3274
NsS'rca/TV_VCR'
p3275
NsS'rca/RCU410WMS'
p3276
NssS'frahm'
p3277
(dp3278
S'frahm/MD300'
p3279
NssS'sigma_designs'
p3280
(dp3281
S'sigma_designs/lircd.conf.realmagic'
p3282
NssS'expressvu'
p3283
(dp3284
S'expressvu/SAT_3100'
p3285
NsS'expressvu/301_501_3100_5100_58xx_59xx'
p3286
NssS'hq'
p3287
(dp3288
S'hq/RC_Univers25'
p3289
NsS'hq/RC_Univers_20'
p3290
NssS'vestel'
p3291
(dp3292
S'vestel/TV'
p3293
NsS'vestel/SF118'
p3294
NssS'tensai'
p3295
(dp3296
S'tensai/5340fb'
p3297
NsS'tensai/TVR_260'
p3298
NssS'hb'
p3299
(dp3300
S'hb/DIGITAL'
p3301
NssS'q-sonic'
p3302
(dp3303
S'q-sonic/Master_Remote_PC_166'
p3304
NsS'q-sonic/Master_Remote_6in1'
p3305
NsS'q-sonic/Master_Remote_PC_TV'
p3306
NssS'tab_electronics'
p3307
(dp3308
S'tab_electronics/Robot_Kit'
p3309
NssS'metronic'
p3310
(dp3311
S'metronic/SAT_441400'
p3312
NsS'metronic/060501'
p3313
NssS'allsat'
p3314
(dp3315
S'allsat/SRC5893'
p3316
NssS'hermstedt'
p3317
(dp3318
S'hermstedt/Hifidelio'
p3319
NssS'fresat'
p3320
(dp3321
S'fresat/SER-3000PL_A'
p3322
NssS'telenet'
p3323
(dp3324
S'telenet/DB-AD110'
p3325
NsS'telenet/DB-AD100'
p3326
NssS'acer'
p3327
(dp3328
S'acer/AT3201W'
p3329
NsS'acer/lircd.conf.Aspire_6530G'
p3330
NsS'acer/RC-802'
p3331
NsS'acer/RC-17DE0.irman'
p3332
NssS'loewe'
p3333
(dp3334
S'loewe/FB200'
p3335
NsS'loewe/FB_3000'
p3336
NsS'loewe/150_TV.irman'
p3337
NsS'loewe/150_TV'
p3338
NsS'loewe/Dialog_control'
p3339
NssS'insignia'
p3340
(dp3341
S'insignia/WIR147002-8301'
p3342
NssS'trio'
p3343
(dp3344
S'trio/xms007'
p3345
NssS'tesla'
p3346
(dp3347
S'tesla/VCR'
p3348
NsS'tesla/TV'
p3349
NsS'tesla/32LCD70WDGHD'
p3350
NsS'tesla/49-900-023'
p3351
NssS'universal'
p3352
(dp3353
S'universal/CV300_111'
p3354
NsS'universal/AV7-RZ-506'
p3355
NsS'universal/RZ-55'
p3356
NsS'universal/RM-786'
p3357
NsS'universal/MELICONI_PERSONAL'
p3358
NsS'universal/GumBody'
p3359
NsS'universal/URC22B'
p3360
NsS'universal/ISP_4187'
p3361
NsS'universal/MAXY1708'
p3362
NsS'universal/846M'
p3363
NsS'universal/8in1'
p3364
NsS'universal/RC_Univers_20'
p3365
NsS'universal/REMOTE_MASTER_1000_0171'
p3366
NsS'universal/R7'
p3367
NsS'universal/URC-7532'
p3368
NsS'universal/Promo2_006'
p3369
NsS'universal/CV300_089'
p3370
NsS'universal/UR24A'
p3371
NsS'universal/LT_3607'
p3372
NsS'universal/TCM_64745'
p3373
NsS'universal/CV300_102'
p3374
NsS'universal/SupportPlus'
p3375
NsS'universal/URC_R5.irman'
p3376
NsS'universal/CME'
p3377
NsS'universal/Knopex'
p3378
NsS'universal/MC-10'
p3379
NsS'universal/URC-6012w'
p3380
NsS'universal/CV150'
p3381
NsS'universal/TCM_96518_439'
p3382
NsS'universal/REMOTE_MASTER_1000_0432'
p3383
NsS'universal/RM-V211T'
p3384
NsS'universal/CV250'
p3385
NsS'universal/TCM_96518'
p3386
NssS'gradiente'
p3387
(dp3388
S'gradiente/D-10'
p3389
NsS'gradiente/MDP-200'
p3390
NsS'gradiente/GSD-100'
p3391
NssS'irobot'
p3392
(dp3393
S'irobot/Roomba_Discovery_SE'
p3394
NsS'irobot/Roomba'
p3395
NsS'irobot/Roomba_Discovery_4220'
p3396
NssS'general'
p3397
(dp3398
S'general/VCR'
p3399
NssS'khl'
p3400
(dp3401
S'khl/REC-R3000'
p3402
NssS'tevion'
p3403
(dp3404
S'tevion/MD_41666_860'
p3405
NsS'tevion/TEV1020'
p3406
NsS'tevion/MD_3607'
p3407
NsS'tevion/TDR-250HD'
p3408
NsS'tevion/MD_41666_782'
p3409
NsS'tevion/RS20536'
p3410
NsS'tevion/MD81302'
p3411
NsS'tevion/MD_4689'
p3412
NsS'tevion/MD80383'
p3413
NsS'tevion/MD_3830'
p3414
NsS'tevion/MDC-982PLL'
p3415
NsS'tevion/TV_DVD_5506_RF'
p3416
NsS'tevion/MD_81299'
p3417
NsS'tevion/MD_80383'
p3418
NsS'tevion/DFA_2005'
p3419
NsS'tevion/DVD2002'
p3420
NsS'tevion/DVD_4000'
p3421
NsS'tevion/DVD2001'
p3422
NsS'tevion/TDR51DV'
p3423
NsS'tevion/SAT928'
p3424
NsS'tevion/MD6461'
p3425
NsS'tevion/TE-0603'
p3426
NsS'tevion/MD_81035'
p3427
NssS'umax'
p3428
(dp3429
S'umax/D-701'
p3430
NssS'ericsson'
p3431
(dp3432
S'ericsson/lircd.conf.bte'
p3433
NssS'lemon'
p3434
(dp3435
S'lemon/Volksbox'
p3436
NssS'nad'
p3437
(dp3438
S'nad/SR6'
p3439
NsS'nad/SR712'
p3440
NsS'nad/RC512'
p3441
NsS'nad/CDP-5425'
p3442
NsS'nad/451'
p3443
NsS'nad/AVR2'
p3444
NssS't+a'
p3445
(dp3446
S't+a/F1'
p3447
NsS't+a/F100'
p3448
NssS'fujitsu'
p3449
(dp3450
S'fujitsu/CP300375-01'
p3451
NssS'denon'
p3452
(dp3453
S'denon/RC-917'
p3454
NsS'denon/RC-861'
p3455
NsS'denon/RC-860'
p3456
NsS'denon/RC-181'
p3457
NsS'denon/RC-840'
p3458
NsS'denon/RC-843'
p3459
NsS'denon/RC-841'
p3460
NsS'denon/RC-129A'
p3461
NsS'denon/RC-846'
p3462
NsS'denon/RC-1075'
p3463
NsS'denon/RC-828'
p3464
NsS'denon/RC-543.irman'
p3465
NsS'denon/RC-241'
p3466
NsS'denon/RC-267'
p3467
NsS'denon/RC-266'
p3468
NsS'denon/RC-203'
p3469
NsS'denon/RC-165'
p3470
NsS'denon/RC-224'
p3471
NsS'denon/RC-220'
p3472
NsS'denon/RC-896'
p3473
NsS'denon/RC-897'
p3474
NsS'denon/RC-1120'
p3475
NsS'denon/RC-877'
p3476
NsS'denon/RC-195'
p3477
NsS'denon/RC-194'
p3478
NsS'denon/RC-176'
p3479
NsS'denon/RC-830'
p3480
NsS'denon/RC-543'
p3481
NsS'denon/RC-812'
p3482
NsS'denon/RC-541'
p3483
NsS'denon/RC-258'
p3484
NsS'denon/RC-117'
p3485
NsS'denon/RC-251'
p3486
NsS'denon/RC-1017'
p3487
NsS'denon/RC-152'
p3488
NsS'denon/RC-818'
p3489
NsS'denon/RC-174'
p3490
NssS'manhattan'
p3491
(dp3492
S'manhattan/DVD_MT_2215'
p3493
NsS'manhattan/TV_MT_5154'
p3494
NssS'video7'
p3495
(dp3496
S'video7/RC750'
p3497
NssS'osram'
p3498
(dp3499
S'osram/OSRAM.conf'
p3500
NssS'voxson'
p3501
(dp3502
S'voxson/DVD250'
p3503
NssS'durabrand'
p3504
(dp3505
S'durabrand/PTV141'
p3506
NssS'chiro'
p3507
(dp3508
S'chiro/C-802'
p3509
NssS'audiovox'
p3510
(dp3511
S'audiovox/SIR_CMB3'
p3512
NsS'audiovox/Sirius_PNP2'
p3513
NssS'ms-tech'
p3514
(dp3515
S'ms-tech/MCx00'
p3516
NsS'ms-tech/HTPC'
p3517
NssS'onkyo'
p3518
(dp3519
S'onkyo/RC-104C'
p3520
NsS'onkyo/RC-710M'
p3521
NsS'onkyo/RC-246C'
p3522
NsS'onkyo/RC-425DV'
p3523
NsS'onkyo/Remote_Interactive_TX-SR505SE'
p3524
NsS'onkyo/RC-606S'
p3525
NsS'onkyo/RC-385S'
p3526
NsS'onkyo/RC-308C'
p3527
NsS'onkyo/RC-682M'
p3528
NsS'onkyo/RC-340C'
p3529
NsS'onkyo/RC-344S'
p3530
NsS'onkyo/RC-447M'
p3531
NsS'onkyo/RC-184s'
p3532
NsS'onkyo/RC-632M'
p3533
NsS'onkyo/TX-L5'
p3534
NsS'onkyo/RC-50'
p3535
NsS'onkyo/RC-738M'
p3536
NsS'onkyo/RC-478M'
p3537
NsS'onkyo/RC-651M'
p3538
NsS'onkyo/RC-453S'
p3539
NsS'onkyo/RC-302S'
p3540
NsS'onkyo/Remote_Interactive'
p3541
NsS'onkyo/RC-314S'
p3542
NsS'onkyo/RC-662S'
p3543
NsS'onkyo/RC-211S'
p3544
NsS'onkyo/RC-333c'
p3545
NsS'onkyo/RC-205S'
p3546
NsS'onkyo/RC-217C'
p3547
NsS'onkyo/RC-252S'
p3548
NsS'onkyo/RC-295S'
p3549
NsS'onkyo/RC-283S'
p3550
NsS'onkyo/RC-146T'
p3551
NssS'beon'
p3552
(dp3553
S'beon/Colour_TV'
p3554
NssS'fisher'
p3555
(dp3556
S'fisher/REM_S3'
p3557
NsS'fisher/RCA-9060'
p3558
NsS'fisher/REM-1500'
p3559
NsS'fisher/RC720F'
p3560
NsS'fisher/RCA-9050'
p3561
NsS'fisher/FVH-U908'
p3562
NssS'tivoli'
p3563
(dp3564
S'tivoli/Sirius'
p3565
NssS'philips'
p3566
(dp3567
S'philips/RC380.irman'
p3568
NsS'philips/RC-5'
p3569
NsS'philips/RD_6830'
p3570
NsS'philips/RC282425'
p3571
NsS'philips/RC2050_01'
p3572
NsS'philips/RC2034302-01'
p3573
NsS'philips/FR731'
p3574
NsS'philips/RC2580'
p3575
NsS'philips/RC19237006'
p3576
NsS'philips/TV3'
p3577
NsS'philips/TV2'
p3578
NsS'philips/TV1'
p3579
NsS'philips/RC19042002'
p3580
NsS'philips/TV4'
p3581
NsS'philips/SBC_RU_520'
p3582
NsS'philips/RT260_95'
p3583
NsS'philips/313911877610'
p3584
NsS'philips/SBC_RU12'
p3585
NsS'philips/SBC_RU_4'
p3586
NsS'philips/28PT7207'
p3587
NsS'philips/RC4347'
p3588
NsS'philips/U352'
p3589
NsS'philips/TIVO'
p3590
NsS'philips/FW_362'
p3591
NsS'philips/BDP3000'
p3592
NsS'philips/AZ2407'
p3593
NsS'philips/LCD_TV_DISCRETE'
p3594
NsS'philips/SRU_530'
p3595
NsS'philips/RC-7843'
p3596
NsS'philips/RC2143601'
p3597
NsS'philips/RC5910'
p3598
NsS'philips/HV92'
p3599
NsS'philips/RT174_101'
p3600
NsS'philips/DVP-5982'
p3601
NsS'philips/VR175'
p3602
NsS'philips/RC2592'
p3603
NsS'philips/N9250UD'
p3604
NsS'philips/RC25271'
p3605
NsS'philips/RT192_101'
p3606
NsS'philips/SBS_RU_880_00'
p3607
NsS'philips/RC7507'
p3608
NsS'philips/RC5991'
p3609
NsS'philips/MZ7'
p3610
NsS'philips/RC7535.irman'
p3611
NsS'philips/RD5860'
p3612
NsS'philips/TIVO.irman'
p3613
NsS'philips/RC8244'
p3614
NsS'philips/RC5260'
p3615
NsS'philips/RC283501'
p3616
NsS'philips/RC_7537'
p3617
NsS'philips/RC5-BP6'
p3618
NsS'philips/RC4330_01H'
p3619
NsS'philips/FW2015'
p3620
NsS'philips/RC5903'
p3621
NsS'philips/RC5901'
p3622
NsS'philips/26PFL5604H'
p3623
NsS'philips/VCR1'
p3624
NsS'philips/FW11'
p3625
NsS'philips/SBC_RU_540'
p3626
NsS'philips/RC-J20PHIL-00-00'
p3627
NsS'philips/RC7535'
p3628
NsS'philips/PHDVD5'
p3629
NsS'philips/RM2517'
p3630
NsS'philips/uDigital-20CT6555'
p3631
NsS'philips/RC7843'
p3632
NsS'philips/29PT5507'
p3633
NsS'philips/RC-2012'
p3634
NsS'philips/RC19041003'
p3635
NsS'philips/RCLE012'
p3636
NsS'philips/FA920'
p3637
NsS'philips/NO314UD.irman'
p3638
NsS'philips/RCLE011'
p3639
NsS'philips/DVDR3570H'
p3640
NsS'philips/SRU_510'
p3641
NsS'philips/RD6831'
p3642
NsS'philips/RC2582'
p3643
NsS'philips/RC4492_01B'
p3644
NsS'philips/RD6834'
p3645
NsS'philips/R-48F01'
p3646
NsS'philips/DVP-642'
p3647
NsS'philips/VCR2'
p3648
NsS'philips/RC2563_01'
p3649
NsS'philips/SBC_RU_760'
p3650
NsS'philips/RC07104_01'
p3651
NsS'philips/VR510'
p3652
NsS'philips/RCL9BC_JJ03'
p3653
NsS'philips/RC07102_01'
p3654
NsS'philips/RT183_201'
p3655
NsS'philips/PM335'
p3656
NsS'philips/RC8243_01'
p3657
NsS'philips/RC9050'
p3658
NsS'philips/RT8967_01'
p3659
NsS'philips/VCR5'
p3660
NsS'philips/VCR4'
p3661
NsS'philips/RC2543_01'
p3662
NsS'philips/RC19335003_01P'
p3663
NsS'philips/RT167_101'
p3664
NsS'philips/RC5371'
p3665
NsS'philips/VCR3'
p3666
NsS'philips/SRM5100'
p3667
NsS'philips/15PF4121'
p3668
NsS'philips/RD6835'
p3669
NsS'philips/HTS3544'
p3670
NsS'philips/N0340UD'
p3671
NsS'philips/5373'
p3672
NsS'philips/RT567_104'
p3673
NsS'philips/VR610'
p3674
NsS'philips/RC9076'
p3675
NsS'philips/RT750_114'
p3676
NsS'philips/VR1000'
p3677
NsS'philips/SBC_RP420'
p3678
NsS'philips/SBC_RU_865'
p3679
NsS'philips/RC19039001'
p3680
NsS'philips/KW-1009-01'
p3681
NsS'philips/AV5662_67'
p3682
NsS'philips/CL304'
p3683
NsS'philips/RC4302'
p3684
NsS'philips/PMDVD6T'
p3685
NsS'philips/TV'
p3686
NsS'philips/RC282422S'
p3687
NsS'philips/17PT1563_43'
p3688
NsS'philips/RC6830'
p3689
NsS'philips/TIVO34'
p3690
NsS'philips/RC19002'
p3691
NsS'philips/RT952'
p3692
NsS'philips/RD6844'
p3693
NsS'philips/VR6000'
p3694
NsS'philips/FW_530C'
p3695
NsS'philips/SRP5004_86'
p3696
NsS'philips/RC4496_01'
p3697
NsS'philips/RC331702_01'
p3698
NsS'philips/Gold_BOX'
p3699
NsS'philips/RD5862'
p3700
NsS'philips/RC8205_01'
p3701
NsS'philips/SRU_5060'
p3702
NsS'philips/DVD-712'
p3703
NsS'philips/RC_7540_00N'
p3704
NsS'philips/SBC_RU_422_III'
p3705
NsS'philips/RC9901'
p3706
NsS'philips/RT736.irman'
p3707
NsS'philips/RT111_101'
p3708
NsS'philips/RT150_211'
p3709
NsS'philips/C380'
p3710
NsS'philips/RH6640_01'
p3711
NsS'philips/RC0786_01'
p3712
NsS'philips/VR522'
p3713
NsS'philips/RH6822_00'
p3714
NsS'philips/RT25184_101'
p3715
NsS'philips/SBC_RU_510_U'
p3716
NsS'philips/RC0797_01'
p3717
NsS'philips/CD720'
p3718
NsS'philips/RC2525_01'
p3719
NsS'philips/DVD-724'
p3720
NsS'philips/RC-S224'
p3721
NsS'philips/32PFL5403D-12'
p3722
NsS'philips/RC7925_01'
p3723
NsS'philips/STO_130A'
p3724
NsS'philips/SBC_RU_258_II'
p3725
NsS'philips/PM725S'
p3726
NsS'philips/RC19420002_01'
p3727
NsS'philips/32PFL9613D'
p3728
NsS'philips/RC5932'
p3729
NsS'philips/RC2070'
p3730
NsS'philips/AV5609'
p3731
NsS'philips/RC8861'
p3732
NsS'philips/RC8601_01'
p3733
NsS'philips/RC5300'
p3734
NsS'philips/DVD711'
p3735
NsS'philips/VR256'
p3736
NsS'philips/N9201PD'
p3737
NsS'philips/AV5680'
p3738
NsS'philips/SBC_RU_545_00'
p3739
NssS'samsung'
p3740
(dp3741
S'samsung/SV-610X'
p3742
NsS'samsung/00011k'
p3743
NsS'samsung/BN59-00937A.irman'
p3744
S'samsung/BN59-00937A.jpg'
p3745
sS'samsung/10095T'
p3746
NsS'samsung/00025G'
p3747
NsS'samsung/ARH-700'
p3748
NsS'samsung/00049C'
p3749
NsS'samsung/00093G.irman'
p3750
NsS'samsung/AA59-00332D'
p3751
NsS'samsung/BN59-00678A'
p3752
NsS'samsung/AH59-01527F'
p3753
NsS'samsung/SV-DVD3E'
p3754
NsS'samsung/AA59-00316b'
p3755
NsS'samsung/AH59-00043E'
p3756
NsS'samsung/SV-70XK'
p3757
NsS'samsung/BN59-00856A'
p3758
NsS'samsung/SMT1000T'
p3759
NsS'samsung/BN59-00940A'
p3760
NsS'samsung/BN59-00685A'
p3761
NsS'samsung/T-59'
p3762
NsS'samsung/SFT-702E'
p3763
NsS'samsung/VXK-336'
p3764
NsS'samsung/SVR-80D'
p3765
NsS'samsung/BN59-00538A'
p3766
NsS'samsung/AA59-00600A.conf'
p3767
S'samsung/AA59-00600A.jpg'
p3768
sS'samsung/00225A'
p3769
NsS'samsung/AA59-00370A'
p3770
NsS'samsung/BN59-00599A'
p3771
NsS'samsung/00077A'
p3772
NsS'samsung/BN59-00861A'
p3773
NsS'samsung/10329K'
p3774
NsS'samsung/BN59-00609A'
p3775
NsS'samsung/RCD-M70'
p3776
NsS'samsung/SIR-S300W'
p3777
NsS'samsung/AA64-50236A'
p3778
NsS'samsung/AA59-00382A'
p3779
NsS'samsung/CS-25M6HNQ'
p3780
NsS'samsung/BN59-00603A'
p3781
NsS'samsung/00104J'
p3782
NsS'samsung/00104K'
p3783
NsS'samsung/10107N'
p3784
NsS'samsung/00056A'
p3785
NsS'samsung/TM-59'
p3786
NsS'samsung/PR3914'
p3787
NsS'samsung/00071F'
p3788
NsS'samsung/528Z'
p3789
NsS'samsung/10420A'
p3790
NsS'samsung/AH64-01045A'
p3791
NsS'samsung/00052B'
p3792
NsS'samsung/SMT-H3050'
p3793
NsS'samsung/SVR-40D'
p3794
NsS'samsung/BN59-00603A-STB'
p3795
NsS'samsung/BRM-E1E'
p3796
NsS'samsung/BN59-00865A'
p3797
NsS'samsung/0070-63'
p3798
NsS'samsung/MF59-00291a'
p3799
NsS'samsung/10419K'
p3800
NsS'samsung/SV-411X'
p3801
NsS'samsung/TM-33'
p3802
NsS'samsung/BN59-00683A'
p3803
NsS'samsung/BN59-00634A'
p3804
NsS'samsung/BN59-00869A'
p3805
NsS'samsung/VR8708'
p3806
NsS'samsung/10116A'
p3807
NsS'samsung/00008E'
p3808
NsS'samsung/10141A'
p3809
NsS'samsung/633-205'
p3810
NsS'samsung/lircd.conf.samsung'
p3811
NsS'samsung/BN59-00516A'
p3812
NsS'samsung/MF59-00242B'
p3813
NsS'samsung/MF59-00242C'
p3814
NsS'samsung/00021C'
p3815
NsS'samsung/00054d'
p3816
NsS'samsung/01043A'
p3817
NsS'samsung/PR_427'
p3818
NsS'samsung/HLN507W'
p3819
NsS'samsung/BN59-00507A'
p3820
NsS'samsung/Dynaflat_TV'
p3821
NsS'samsung/00092M'
p3822
NsS'samsung/SCM-8900'
p3823
NsS'samsung/AA59-10026E'
p3824
NsS'samsung/3F14-00048-180'
p3825
NsS'samsung/00092B'
p3826
NsS'samsung/00198F'
p3827
NsS'samsung/AA59-00489A'
p3828
NssS'xlogic'
p3829
(dp3830
S'xlogic/KF8000D'
p3831
NssS'luxor'
p3832
(dp3833
S'luxor/DV405'
p3834
NssS'dvico'
p3835
(dp3836
S'dvico/FusionRemote'
p3837
NsS'dvico/lircd.conf.fusionHDTV'
p3838
NssS'golden_interstart'
p3839
(dp3840
S'golden_interstart/DSR-8001'
p3841
NssS'meliconi'
p3842
(dp3843
S'meliconi/Speedy'
p3844
NsS'meliconi/Speedy2'
p3845
NsS'meliconi/Facile'
p3846
NsS'meliconi/Universal_3'
p3847
NsS'meliconi/Control_4'
p3848
Nsss.